Archive member included because of file (symbol)

arch/arm/cpu/hi3516a/libhi3516a.a(lowlevel_init_v300.o)
                              arch/arm/cpu/hi3516a/start.o (start_ddr_training)
arch/arm/cpu/hi3516a/libhi3516a.a(lowlevel_init_svb.o)
                              arch/arm/cpu/hi3516a/start.o (start_svb)
arch/arm/cpu/hi3516a/libhi3516a.a(ddrphy_training_func.o)
                              arch/arm/cpu/hi3516a/libhi3516a.a(lowlevel_init_v300.o) (ddr_training_info)
arch/arm/cpu/hi3516a/libhi3516a.a(ddrphy_training_print.o)
                              arch/arm/cpu/hi3516a/libhi3516a.a(lowlevel_init_v300.o) (ddr_training_print)
arch/arm/cpu/hi3516a/libhi3516a.a(uart.o)
                              arch/arm/cpu/hi3516a/libhi3516a.a(ddrphy_training_func.o) (uart_early_puts)
arch/arm/cpu/hi3516a/libhi3516a.a(chip.o)
                              arch/arm/cpu/hi3516a/libhi3516a.a(lowlevel_init_v300.o) (reset_cpu)
arch/arm/cpu/hi3516a/libhi3516a.a(ddrphy_training.o)
                              arch/arm/cpu/hi3516a/libhi3516a.a(lowlevel_init_v300.o) (ddrphy_train_route)
arch/arm/cpu/hi3516a/libhi3516a.a(ddr_dataeye_training.o)
                              arch/arm/cpu/hi3516a/libhi3516a.a(lowlevel_init_v300.o) (ddr_dataeye_training)
arch/arm/lib/libarm.a(board.o)
                              arch/arm/cpu/hi3516a/start.o (start_armboot)
arch/arm/lib/libarm.a(interrupts.o)
                              arch/arm/lib/libarm.a(board.o) (enable_interrupts)
net/libnet.a(eth.o)           arch/arm/lib/libarm.a(board.o) (eth_initialize)
net/libnet.a(net.o)           arch/arm/lib/libarm.a(board.o) (copy_filename)
net/libnet.a(rarp.o)          net/libnet.a(net.o) (RarpRequest)
net/libnet.a(tftp.o)          net/libnet.a(net.o) (TftpStart)
net/libnet.a(bootp.o)         net/libnet.a(net.o) (BootpRequest)
drivers/mtd/nand/libnand.a(nand.o)
                              arch/arm/lib/libarm.a(board.o) (nand_init)
drivers/mtd/nand/libnand.a(nand_base.o)
                              drivers/mtd/nand/libnand.a(nand.o) (nand_scan)
drivers/mtd/nand/libnand.a(nand_bbt.o)
                              drivers/mtd/nand/libnand.a(nand_base.o) (nand_update_bbt)
drivers/mtd/nand/libnand.a(nand_ecc.o)
                              drivers/mtd/nand/libnand.a(nand_base.o) (nand_calculate_ecc)
drivers/mtd/nand/libnand.a(nand_ids.o)
                              drivers/mtd/nand/libnand.a(nand_base.o) (nand_manuf_ids)
drivers/mtd/nand/libnand.a(hinfc_common.o)
                              drivers/mtd/nand/libnand.a(nand_base.o) (nand_ecc_name)
drivers/mtd/nand/hinfc610/libhinfcv610.a(hinfc610.o)
                              drivers/mtd/nand/libnand.a(nand.o) (board_nand_init)
drivers/mtd/nand/hinfc610/libhinfcv610.a(hinfc610_gen.o)
                              drivers/mtd/nand/hinfc610/libhinfcv610.a(hinfc610.o) (hinfc610_page_type2reg)
drivers/mtd/nand/hinfc610/libhinfcv610.a(hinfc610_spl_ids.o)
                              drivers/mtd/nand/hinfc610/libhinfcv610.a(hinfc610.o) (nand_spl_ids_register)
drivers/mtd/nand/hinfc610/libhinfcv610.a(hinfc610_read_retry_hynix_bg_cdie.o)
                              drivers/mtd/nand/hinfc610/libhinfcv610.a(hinfc610.o) (hinfc610_hynix_bg_cdie_read_retry)
drivers/mtd/nand/hinfc610/libhinfcv610.a(hinfc610_read_retry_hynix_bg_bdie.o)
                              drivers/mtd/nand/hinfc610/libhinfcv610.a(hinfc610.o) (hinfc610_hynix_bg_bdie_read_retry)
drivers/mtd/nand/hinfc610/libhinfcv610.a(hinfc610_read_retry_hynix_cg_adie.o)
                              drivers/mtd/nand/hinfc610/libhinfcv610.a(hinfc610.o) (hinfc610_hynix_cg_adie_read_retry)
drivers/mtd/nand/hinfc610/libhinfcv610.a(hinfc610_read_retry_micron.o)
                              drivers/mtd/nand/hinfc610/libhinfcv610.a(hinfc610.o) (hinfc610_micron_read_retry)
drivers/mtd/nand/hinfc610/libhinfcv610.a(hinfc610_read_retry_samsung.o)
                              drivers/mtd/nand/hinfc610/libhinfcv610.a(hinfc610.o) (hinfc610_samsung_read_retry)
drivers/mtd/nand/hinfc610/libhinfcv610.a(hinfc610_read_retry_toshiba.o)
                              drivers/mtd/nand/hinfc610/libhinfcv610.a(hinfc610.o) (hinfc610_toshiba_24nm_read_retry)
drivers/mtd/nand/hinfc610/libhinfcv610.a(hinfc620_gen.o)
                              drivers/mtd/nand/hinfc610/libhinfcv610.a(hinfc610.o) (hinfc620_ecc_type2reg)
drivers/mtd/spi/libspi_flash.a(spi_compatible.o)
                              arch/arm/lib/libarm.a(board.o) (spi_flash_probe)
drivers/mtd/spi/hisfc350/libhisfcv350.a(hisfc350.o)
                              drivers/mtd/spi/libspi_flash.a(spi_compatible.o) (hisfc350_get_spi_lock_info)
drivers/mtd/spi/hisfc350/libhisfcv350.a(hisfc350_spi_ids.o)
                              drivers/mtd/spi/hisfc350/libhisfcv350.a(hisfc350.o) (spi_general_get_flash_register)
drivers/net/higmacv300/libhigmacv300.a(higmac.o)
                              net/libnet.a(net.o) (eth_rx)
drivers/net/higmacv300/libhigmacv300.a(mdio.o)
                              drivers/net/higmacv300/libhigmacv300.a(higmac.o) (higmac0_mdio_read)
drivers/net/higmacv300/libhigmacv300.a(ctrl.o)
                              drivers/net/higmacv300/libhigmacv300.a(higmac.o) (higmac_set_macif)
drivers/serial/libserial.a(serial_pl01x.o)
                              arch/arm/lib/libarm.a(board.o) (serial_init)
common/libcommon.a(cmd_boot.o)
                              (__u_boot_cmd_reset)
common/libcommon.a(cmd_bootm.o)
                              (__u_boot_cmd_bootm)
common/libcommon.a(cmd_ddr_training_v300.o)
                              arch/arm/lib/libarm.a(board.o) (check_ddr_training)
common/libcommon.a(cmd_fat.o)
                              (__u_boot_cmd_fatinfo)
common/libcommon.a(cmd_getinfo.o)
                              (__u_boot_cmd_getinfo)
common/libcommon.a(cmd_help.o)
                              (__u_boot_cmd_question_mark)
common/libcommon.a(cmd_load.o)
                              (__u_boot_cmd_loady)
common/libcommon.a(cmd_mem.o)
                              (__u_boot_cmd_mtest)
common/libcommon.a(cmd_mii.o)
                              (__u_boot_cmd_mii)
common/libcommon.a(cmd_nand.o)
                              (__u_boot_cmd_nboot)
common/libcommon.a(cmd_net.o)
                              (__u_boot_cmd_ping)
common/libcommon.a(cmd_nvedit.o)
                              net/libnet.a(net.o) (get_env_id)
common/libcommon.a(cmd_sf.o)  (__u_boot_cmd_sf)
common/libcommon.a(cmd_usb.o)
                              (__u_boot_cmd_usbboot)
common/libcommon.a(cmd_version.o)
                              (__u_boot_cmd_version)
common/libcommon.a(command.o)
                              common/libcommon.a(cmd_bootm.o) (find_cmd_tbl)
common/libcommon.a(console.o)
                              arch/arm/lib/libarm.a(board.o) (printf)
common/libcommon.a(dlmalloc.o)
                              arch/arm/lib/libarm.a(board.o) (mem_malloc_init)
common/libcommon.a(download_process.o)
                              arch/arm/lib/libarm.a(board.o) (download_boot)
common/libcommon.a(env_common.o)
                              common/libcommon.a(cmd_nvedit.o) (env_crc_update)
common/libcommon.a(env_common_func.o)
                              common/libcommon.a(env_common.o) (env_get_char_spec)
common/libcommon.a(env_nand.o)
                              common/libcommon.a(env_common_func.o) (nand_env_get_char_spec)
common/libcommon.a(env_sf.o)  common/libcommon.a(env_common_func.o) (sf_env_get_char_spec)
common/libcommon.a(exports.o)
                              arch/arm/lib/libarm.a(board.o) (jumptable_init)
common/libcommon.a(hi3516a_ddr_training_printf.o)
                              common/libcommon.a(cmd_ddr_training_v300.o) (hi3516a_ddr_training_result)
common/libcommon.a(image.o)   common/libcommon.a(cmd_bootm.o) (image_check_hcrc)
common/libcommon.a(main.o)    common/libcommon.a(cmd_bootm.o) (show_boot_progress)
common/libcommon.a(miiphyutil.o)
                              net/libnet.a(eth.o) (miiphy_init)
common/libcommon.a(stdio.o)   common/libcommon.a(console.o) (stdio_get_list)
common/libcommon.a(usb.o)     common/libcommon.a(cmd_bootm.o) (usb_stop)
common/libcommon.a(usb_storage.o)
                              common/libcommon.a(cmd_usb.o) (usb_stor_get_dev)
common/libcommon.a(xyzModem.o)
                              common/libcommon.a(cmd_load.o) (xyzModem_stream_open)
common/libcommon.a(ddr_training_entry.o)
                              common/libcommon.a(cmd_ddr_training_v300.o) (hi3516a_ddr_training_data_start)
product/libproduct.a(sample.o)
                              arch/arm/lib/libarm.a(board.o) (product_control)
board/hi3516a/libhi3516a.a(board.o)
                              common/libcommon.a(cmd_getinfo.o) (get_boot_media)
lib/libgeneric.a(crc16.o)     common/libcommon.a(xyzModem.o) (cyg_crc16)
lib/libgeneric.a(crc32.o)     common/libcommon.a(cmd_mem.o) (crc32)
lib/libgeneric.a(ctype.o)     common/libcommon.a(usb.o) (_ctype)
lib/libgeneric.a(display_options.o)
                              net/libnet.a(tftp.o) (print_size)
lib/libgeneric.a(div64.o)     common/libcommon.a(cmd_sf.o) (__div64_32)
lib/libgeneric.a(gunzip.o)    common/libcommon.a(cmd_bootm.o) (gunzip)
lib/libgeneric.a(net_utils.o)
                              arch/arm/lib/libarm.a(board.o) (string_to_ip)
lib/libgeneric.a(string.o)    net/libnet.a(net.o) (strcpy)
lib/libgeneric.a(time.o)      drivers/mtd/nand/libnand.a(nand_base.o) (udelay)
lib/libgeneric.a(vsprintf.o)  arch/arm/lib/libarm.a(board.o) (simple_strtoul)
lib/libgeneric.a(match_table.o)
                              drivers/mtd/nand/libnand.a(hinfc_common.o) (reg2type)
lib/libgeneric.a(zlib.o)      lib/libgeneric.a(gunzip.o) (inflateInit2_)
arch/arm/cpu/hi3516a/hi3516a/libhi3516a.a(timer.o)
                              arch/arm/lib/libarm.a(board.o) (timer_init)
arch/arm/lib/libarm.a(bootm.o)
                              common/libcommon.a(cmd_bootm.o) (do_bootm_linux)
arch/arm/lib/libarm.a(cache.o)
                              common/libcommon.a(cmd_load.o) (flush_cache)
arch/arm/lib/libarm.a(process.o)
                              drivers/mtd/spi/hisfc350/libhisfcv350.a(hisfc350.o) (add_shutdown)
arch/arm/lib/libarm.a(cache-cp15.o)
                              common/libcommon.a(cmd_ddr_training_v300.o) (icache_enable)
arch/arm/lib/libarm.a(reset.o)
                              common/libcommon.a(cmd_boot.o) (do_reset)
arch/arm/lib/libarm.a(ddr_layout.o)
                              common/libcommon.a(cmd_ddr_training_v300.o) (get_ddr_free)
arch/arm/lib/libarm.a(ddr_size.o)
                              arch/arm/lib/libarm.a(ddr_layout.o) (get_ddr_size)
arch/arm/lib/libarm.a(cpu_info.o)
                              common/libcommon.a(cmd_ddr_training_v300.o) (get_chipid)
arch/arm/lib/libarm.a(mmu.o)  arch/arm/lib/libarm.a(cache-cp15.o) (mmu_pagedir_init)
arch/arm/lib/libarm.a(cache_ops.o)
                              arch/arm/lib/libarm.a(cache-cp15.o) (dcache_flush_all)
fs/fat/libfat.a(fat.o)        common/libcommon.a(cmd_fat.o) (fat_register_device)
disk/libdisk.a(part.o)        common/libcommon.a(cmd_fat.o) (get_dev)
disk/libdisk.a(part_dos.o)    disk/libdisk.a(part.o) (test_part_dos)
drivers/mtd/nand/libnand.a(nand_util.o)
                              common/libcommon.a(cmd_nand.o) (nand_erase_opts)
drivers/mtd/spi/libspi_flash.a(spi_ids.o)
                              drivers/mtd/spi/hisfc350/libhisfcv350.a(hisfc350.o) (spi_serach_ids)
drivers/usb/host/hiusb/libhiusb.a(hiusb-ohci.o)
                              common/libcommon.a(usb.o) (submit_bulk_msg)
arch/arm/cpu/hi3516a/libhi3516a.a(cpu.o)
                              arch/arm/lib/libarm.a(bootm.o) (cleanup_before_linux)
/opt/hisi-linux/x86-arm/arm-hisiv300-linux/bin/../lib/gcc/arm-hisiv300-linux-uclibcgnueabi/4.8.3/libgcc.a(_udivsi3.o)
                              arch/arm/cpu/hi3516a/libhi3516a.a(lowlevel_init_svb.o) (__aeabi_uidiv)
/opt/hisi-linux/x86-arm/arm-hisiv300-linux/bin/../lib/gcc/arm-hisiv300-linux-uclibcgnueabi/4.8.3/libgcc.a(_divsi3.o)
                              common/libcommon.a(cmd_mem.o) (__aeabi_idiv)
/opt/hisi-linux/x86-arm/arm-hisiv300-linux/bin/../lib/gcc/arm-hisiv300-linux-uclibcgnueabi/4.8.3/libgcc.a(_lshrdi3.o)
                              drivers/mtd/nand/libnand.a(nand_base.o) (__aeabi_llsr)
/opt/hisi-linux/x86-arm/arm-hisiv300-linux/bin/../lib/gcc/arm-hisiv300-linux-uclibcgnueabi/4.8.3/libgcc.a(_ashrdi3.o)
                              drivers/mtd/nand/libnand.a(nand_base.o) (__aeabi_lasr)
/opt/hisi-linux/x86-arm/arm-hisiv300-linux/bin/../lib/gcc/arm-hisiv300-linux-uclibcgnueabi/4.8.3/libgcc.a(_ashldi3.o)
                              drivers/mtd/nand/libnand.a(nand_base.o) (__aeabi_llsl)
/opt/hisi-linux/x86-arm/arm-hisiv300-linux/bin/../lib/gcc/arm-hisiv300-linux-uclibcgnueabi/4.8.3/libgcc.a(_dvmd_lnx.o)
                              /opt/hisi-linux/x86-arm/arm-hisiv300-linux/bin/../lib/gcc/arm-hisiv300-linux-uclibcgnueabi/4.8.3/libgcc.a(_udivsi3.o) (__aeabi_idiv0)

内存配置

名称           来源             长度             属性
*default*        0x00000000         0xffffffff

链结器命令稿和内存映射

                0x00000000                . = 0x0
                0x00000000                . = ALIGN (0x4)

.text           0x80800000    0x2a3b0
 arch/arm/cpu/hi3516a/start.o(.text)
 .text          0x80800000     0x1740 arch/arm/cpu/hi3516a/start.o
                0x80800000                _start
                0x80801040                _blank_zone_start
                0x80801044                _blank_zone_end
                0x80801054                _armboot_start
                0x80801058                _bss_start
                0x8080105c                _bss_end
                0x80801518                init_registers
 *(.text)
 .text          0x80801740       0xb4 arch/arm/cpu/hi3516a/libhi3516a.a(lowlevel_init_v300.o)
                0x80801740                start_ddr_training
 .text          0x808017f4      0x7ec arch/arm/cpu/hi3516a/libhi3516a.a(lowlevel_init_svb.o)
                0x808019ac                config_ema
                0x808019d4                start_svb
 .text          0x80801fe0      0x450 arch/arm/cpu/hi3516a/libhi3516a.a(ddrphy_training_func.o)
                0x80801fe0                DDRPHY_WRLV_TRAIN_ROUTE
                0x80802120                DDRPHY_GATE_TRAIN_ROUTE
                0x808022c0                DDRPHY_DATA_TRAIN_ROUTE
                0x808023bc                ddr_training_info
 .text          0x80802430       0x64 arch/arm/cpu/hi3516a/libhi3516a.a(ddrphy_training_print.o)
                0x80802430                ddr_training_print
 .text          0x80802494       0xc4 arch/arm/cpu/hi3516a/libhi3516a.a(uart.o)
                0x80802494                uart_early_init
                0x808024c8                uart_early_puts
                0x808024f8                uart_early_put_hex
                0x8080253c                uart_early_putc
 .text          0x80802558       0x28 arch/arm/cpu/hi3516a/libhi3516a.a(chip.o)
                0x80802558                get_chipid_reg
                0x80802568                reset_cpu
 .text          0x80802580      0x560 arch/arm/cpu/hi3516a/libhi3516a.a(ddrphy_training.o)
                0x808025b4                ddrphy_train_route
 .text          0x80802ae0      0xc94 arch/arm/cpu/hi3516a/libhi3516a.a(ddr_dataeye_training.o)
                0x80802c4c                ddrt_read
                0x80803214                byte_deskew_judge
                0x80803754                ddr_dataeye_training
 .text          0x80803774      0x214 arch/arm/lib/libarm.a(board.o)
                0x808037f0                coloured_LED_init
                0x808037f0                __coloured_LED_init
                0x808037f4                red_LED_on
                0x808037f4                __red_LED_on
                0x808037f8                __red_LED_off
                0x808037f8                red_LED_off
                0x808037fc                green_LED_on
                0x808037fc                __green_LED_on
                0x80803800                __green_LED_off
                0x80803800                green_LED_off
                0x80803804                __yellow_LED_on
                0x80803804                yellow_LED_on
                0x80803808                __yellow_LED_off
                0x80803808                yellow_LED_off
                0x8080380c                blue_LED_on
                0x8080380c                __blue_LED_on
                0x80803810                blue_LED_off
                0x80803810                __blue_LED_off
                0x80803814                hang
                0x80803828                start_armboot
 .text          0x80803988      0x260 arch/arm/lib/libarm.a(interrupts.o)
                0x80803988                enable_interrupts
                0x8080398c                disable_interrupts
                0x80803994                bad_mode
                0x808039b0                show_regs
                0x80803aec                do_undefined_instruction
                0x80803b10                do_software_interrupt
                0x80803b34                do_prefetch_abort
                0x80803b58                do_data_abort
                0x80803b7c                do_not_used
                0x80803ba0                do_fiq
                0x80803bc4                do_irq
 .text          0x80803be8      0x13c net/libnet.a(eth.o)
                0x80803be8                eth_parse_enetaddr
                0x80803c40                eth_getenv_enetaddr
                0x80803c9c                eth_setenv_enetaddr
                0x80803cd0                eth_getenv_enetaddr_by_index
                0x80803d14                eth_initialize
 .text          0x80803d24     0x121c net/libnet.a(net.o)
                0x80803d98                NetStartAgain
                0x80803e70                NetSetHandler
                0x80803e80                NetSetTimeout
                0x80803eb0                NetSendPacket
                0x80803eb4                NetCksum
                0x80803ee4                NetCksumOk
                0x80803f04                NetEthHdrSize
                0x80803f3c                NetSetEther
                0x80803fd4                ArpRequest
                0x808040cc                ArpTimeoutCheck
                0x8080413c                PingSend
                0x8080426c                NetReceive
                0x808047b8                NetSetIP
                0x80804894                NetSendUDPPacket
                0x80804a8c                copy_filename
                0x80804ad4                ip_to_string
                0x80804b0c                VLAN_to_string
                0x80804b50                string_to_VLAN
                0x80804b98                getenv_VLAN
                0x80804ba8                NetLoop
 .text          0x80804f40      0x174 net/libnet.a(rarp.o)
                0x80804f80                RarpRequest
 .text          0x808050b4      0xb5c net/libnet.a(tftp.o)
                0x80805860                print_IPaddr
                0x8080587c                TftpStart
 .text          0x80805c10      0x5ac net/libnet.a(bootp.o)
                0x80805f84                BootpRequest
 .text          0x808061bc       0xb4 drivers/mtd/nand/libnand.a(nand.o)
                0x808061bc                nand_init
 .text          0x80806270     0x3be0 drivers/mtd/nand/libnand.a(nand_base.o)
                0x80808168                nand_wait_ready
                0x80808d00                nand_erase_nand
                0x80809080                get_nand_info
                0x8080908c                nand_scan_ident
                0x80809870                nand_scan_tail
                0x80809e08                nand_scan
                0x80809e28                nand_release
 .text          0x80809e50     0x1688 drivers/mtd/nand/libnand.a(nand_bbt.o)
                0x8080aca0                nand_update_bbt
                0x8080af54                nand_scan_bbt
                0x8080b3dc                nand_default_bbt
                0x8080b48c                nand_isbad_bbt
 .text          0x8080b4d8      0x214 drivers/mtd/nand/libnand.a(nand_ecc.o)
                0x8080b4d8                nand_calculate_ecc
                0x8080b5cc                nand_correct_data
 .text          0x8080b6ec        0x0 drivers/mtd/nand/libnand.a(nand_ids.o)
 .text          0x8080b6ec      0x190 drivers/mtd/nand/libnand.a(hinfc_common.o)
                0x8080b6ec                nand_ecc_name
                0x8080b708                nand_page_name
                0x8080b724                nandpage_size2type
                0x8080b73c                nandpage_type2size
                0x8080b754                match_ecc_type_to_yaffs
                0x8080b778                match_page_reg_to_type
                0x8080b79c                match_page_type_to_reg
                0x8080b7c0                match_page_type_to_str
                0x8080b7dc                match_ecc_reg_to_type
                0x8080b800                match_ecc_type_to_reg
                0x8080b824                match_ecc_type_to_str
                0x8080b840                match_page_size_to_type
                0x8080b864                match_page_type_to_size
 .text          0x8080b87c     0x125c drivers/mtd/nand/hinfc610/libhinfcv610.a(hinfc610.o)
                0x8080c2cc                hinfc610_controller_enable
                0x8080c2ec                hinfc610_force_ecc
                0x8080c40c                hinfc610_ecc_type2reg_intf
                0x8080c80c                hinfc610_ecc_reg2type_intf
                0x8080c828                hinfc610_nand_get_rr_param
                0x8080c864                board_nand_init
                0x8080caa0                nand_get_ecctype
 .text          0x8080cad8       0x60 drivers/mtd/nand/hinfc610/libhinfcv610.a(hinfc610_gen.o)
                0x8080cad8                hinfc610_page_type2reg
                0x8080caf0                hinfc610_page_reg2type
                0x8080cb08                hinfc610_ecc_type2reg
                0x8080cb20                hinfc610_ecc_reg2type
 .text          0x8080cb38      0x358 drivers/mtd/nand/hinfc610/libhinfcv610.a(hinfc610_spl_ids.o)
                0x8080cca0                nand_get_special_flash_type
                0x8080ce60                nand_spl_ids_register
 .text          0x8080ce90      0x808 drivers/mtd/nand/hinfc610/libhinfcv610.a(hinfc610_read_retry_hynix_bg_cdie.o)
 .text          0x8080d698      0x304 drivers/mtd/nand/hinfc610/libhinfcv610.a(hinfc610_read_retry_hynix_bg_bdie.o)
 .text          0x8080d99c      0x838 drivers/mtd/nand/hinfc610/libhinfcv610.a(hinfc610_read_retry_hynix_cg_adie.o)
 .text          0x8080e1d4       0xa4 drivers/mtd/nand/hinfc610/libhinfcv610.a(hinfc610_read_retry_micron.o)
 .text          0x8080e278      0x27c drivers/mtd/nand/hinfc610/libhinfcv610.a(hinfc610_read_retry_samsung.o)
 .text          0x8080e4f4      0x320 drivers/mtd/nand/hinfc610/libhinfcv610.a(hinfc610_read_retry_toshiba.o)
 .text          0x8080e814       0x60 drivers/mtd/nand/hinfc610/libhinfcv610.a(hinfc620_gen.o)
                0x8080e814                hinfc620_page_type2reg
                0x8080e82c                hinfc620_page_reg2type
                0x8080e844                hinfc620_ecc_type2reg
                0x8080e85c                hinfc620_ecc_reg2type
 .text          0x8080e874      0x170 drivers/mtd/spi/libspi_flash.a(spi_compatible.o)
                0x8080e874                spi_flash_probe
                0x8080e8a0                get_spiflash_info
                0x8080e8cc                spi_flash_free
                0x8080e8d0                spi_flash_lock
 .text          0x8080e9e4     0x13ec drivers/mtd/spi/hisfc350/libhisfcv350.a(hisfc350.o)
                0x8080f49c                spi_lock_update_address
                0x8080f510                hisfc350_get_spi_lock_info
                0x8080faa0                hisfc350_spiflash_init
                0x8080fb60                hisfc350_spi_lock
 .text          0x8080fdd0      0xb04 drivers/mtd/spi/hisfc350/libhisfcv350.a(hisfc350_spi_ids.o)
                0x80810410                spi_general_get_flash_register
 .text          0x808108d4      0xe00 drivers/net/higmacv300/libhigmacv300.a(higmac.o)
                0x808108d4                srandom
                0x808108ec                random
                0x80810940                random_ether_addr
                0x80810998                eth_rx
                0x80810b78                eth_send
                0x80810cc8                eth_init
                0x80811678                eth_halt
 .text          0x808116d4      0x18c drivers/net/higmacv300/libhigmacv300.a(mdio.o)
                0x80811810                higmac0_mdio_read
                0x8081181c                higmac1_mdio_read
                0x80811828                higmac0_mdio_write
                0x80811834                higmac1_mdio_write
                0x80811840                higmac_mdiobus_driver_init
                0x8081185c                higmac_mdiobus_driver_exit
 .text          0x80811860      0x4dc drivers/net/higmacv300/libhigmacv300.a(ctrl.o)
                0x80811860                higmac_set_macif
                0x808118c8                higmac_hw_set_macaddress
                0x8081190c                higmac_hw_get_macaddress
                0x8081194c                higmac_clear_irqstatus
                0x80811960                higmac_glb_preinit_dummy
                0x8081198c                higmac_external_phy_reset
                0x808119dc                higmac_sys_init
                0x80811a90                higmac_sys_exit
                0x80811a94                higmac_sys_allstop
                0x80811a98                higmac_set_hwq_depth
                0x80811b80                higmac_set_rx_fq_hwq_addr
                0x80811bb0                higmac_set_rx_bq_hwq_addr
                0x80811be0                higmac_set_tx_bq_hwq_addr
                0x80811c10                higmac_set_tx_rq_hwq_addr
                0x80811c40                higmac_desc_enable
                0x80811c54                higmac_desc_disable
                0x80811c68                higmac_desc_flush
 .text          0x80811d3c      0x17c drivers/serial/libserial.a(serial_pl01x.o)
                0x80811d3c                serial_init
                0x80811ddc                serial_putc
                0x80811e1c                serial_puts
                0x80811e3c                serial_puts_to_hitool
                0x80811e70                serial_getc
                0x80811e9c                serial_tstc
                0x80811eb4                serial_setbrg
 .text          0x80811eb8       0x84 common/libcommon.a(cmd_boot.o)
                0x80811eb8                do_go_exec
                0x80811ec8                do_go
 .text          0x80811f3c      0xa8c common/libcommon.a(cmd_bootm.o)
                0x8081258c                arch_preboot_os
                0x8081258c                __arch_preboot_os
                0x80812590                do_bootm_subcommand
                0x8081274c                do_bootm
 .text          0x808129c8      0x45c common/libcommon.a(cmd_ddr_training_v300.o)
                0x80812aec                ddr_training
                0x80812bd4                do_ddr_training
                0x80812e1c                check_ddr_training
 .text          0x80812e24      0x368 common/libcommon.a(cmd_fat.o)
                0x80812e24                do_fat_fsinfo
                0x80812f00                do_fat_fsload
                0x80813080                do_fat_ls
 .text          0x8081318c      0x25c common/libcommon.a(cmd_getinfo.o)
                0x8081318c                do_getinfo
 .text          0x808133e8       0x48 common/libcommon.a(cmd_help.o)
                0x808133e8                do_help
 .text          0x80813430      0x97c common/libcommon.a(cmd_load.o)
                0x80813574                send_pad
                0x808135a4                ktrans
                0x808135c8                chk1
                0x808135f0                s1_sendpacket
                0x80813618                send_ack
                0x80813674                send_nack
                0x808136d0                k_data_init
                0x808136e8                k_data_save
                0x8081370c                k_data_restore
                0x80813730                k_data_char
                0x80813780                handle_send_packet
                0x80813944                do_load_serial_bin
 .text          0x80813dac      0x904 common/libcommon.a(cmd_mem.o)
                0x80813dac                do_mem_loop
                0x80813e98                do_mem_md
                0x80813f6c                do_mem_base
                0x80813fac                do_mem_mtest
                0x8081414c                do_mem_mw
                0x80814208                do_mem_cmp
                0x808144f0                do_mem_mm
                0x80814514                do_mem_cp
                0x808145e4                do_mem_crc
                0x8081468c                do_mem_nm
 .text          0x808146b0      0x7bc common/libcommon.a(cmd_mii.o)
                0x80814700                MII_dump_0_to_5
                0x808149c8                do_mii
 .text          0x80814e6c      0xfa0 common/libcommon.a(cmd_nand.o)
                0x80814ff8                do_nand
                0x80815ad0                do_nandboot
 .text          0x80815e0c      0x408 common/libcommon.a(cmd_net.o)
                0x80816168                do_bootp
                0x80816174                do_tftp
                0x80816180                do_rarpb
                0x8081618c                do_ping
 .text          0x80816214      0x7d4 common/libcommon.a(cmd_nvedit.o)
                0x80816214                do_saveenv
                0x80816244                get_env_id
                0x80816254                envmatch
                0x808163ac                do_printenv
                0x80816440                _do_setenv
                0x80816848                setenv
                0x80816894                do_setenv
                0x808168bc                getenv
                0x8081692c                getenv_r
 .text          0x808169e8      0x7f4 common/libcommon.a(cmd_sf.o)
 .text          0x808171dc     0x112c common/libcommon.a(cmd_usb.o)
                0x808171dc                do_usbboot
                0x80817560                usb_get_class_desc
                0x8081761c                usb_display_class_sub
                0x8081779c                usb_display_string
                0x808177d8                usb_display_desc
                0x80817910                usb_display_conf_desc
                0x808179bc                usb_display_if_desc
                0x80817a44                usb_display_ep_desc
                0x80817b08                usb_display_config
                0x80817b84                usb_show_tree_graph
                0x80817d9c                usb_show_tree
                0x80817dcc                do_usb
 .text          0x80818308       0x20 common/libcommon.a(cmd_version.o)
                0x80818308                do_version
 .text          0x80818328      0x810 common/libcommon.a(command.o)
                0x80818328                var_complete
                0x808183a4                find_cmd_tbl
                0x8081843c                find_cmd
                0x80818464                cmd_usage
                0x80818488                _do_help
                0x8081860c                install_auto_complete
                0x80818648                cmd_auto_complete
                0x80818adc                cmd_get_data_size
 .text          0x80818b38      0x5a4 common/libcommon.a(console.o)
                0x80818bd8                serial_printf
                0x80818c1c                fgetc
                0x80818c40                ftstc
                0x80818c64                fputc
                0x80818c84                fputs
                0x80818ca4                fprintf
                0x80818cf0                getc
                0x80818d14                tstc
                0x80818d38                putc
                0x80818d5c                puts
                0x80818d80                printf
                0x80818dc4                print_to_hitool
                0x80818e08                vprintf
                0x80818e3c                ctrlc
                0x80818e8c                disable_ctrlc
                0x80818ea4                had_ctrlc
                0x80818eb4                clear_ctrlc
                0x80818ec8                dbg
                0x80818ed4                search_device
                0x80818f04                console_assign
                0x80818f48                console_init_f
                0x80818f58                stdio_print_current_devices
                0x80819008                console_init_r
 .text          0x808190dc     0x1074 common/libcommon.a(dlmalloc.o)
                0x808190dc                sbrk
                0x80819118                mem_malloc_init
                0x8081913c                malloc_trim
                0x808191fc                free
                0x80819424                malloc
                0x808199d8                calloc
                0x80819ab4                realloc
                0x80819f74                memalign
                0x8081a080                valloc
                0x8081a08c                pvalloc
                0x8081a0a4                cfree
                0x8081a0a8                malloc_usable_size
                0x8081a0e4                mallopt
 .text          0x8081a150      0x21c common/libcommon.a(download_process.o)
                0x8081a1f0                download_process
                0x8081a328                download_boot
 .text          0x8081a36c      0x274 common/libcommon.a(env_common.o)
                0x8081a36c                env_crc_update
                0x8081a398                env_get_char_memory
                0x8081a3b8                env_get_char
                0x8081a3e8                env_get_addr
                0x8081a408                set_default_env
                0x8081a448                env_relocate
                0x8081a4a0                env_complete
 .text          0x8081a5e0      0x110 common/libcommon.a(env_common_func.o)
                0x8081a5e0                env_get_char_spec
                0x8081a604                saveenv
                0x8081a628                env_relocate_spec
                0x8081a644                env_init
 .text          0x8081a6f0      0x2b8 common/libcommon.a(env_nand.o)
                0x8081a6f0                nand_env_get_char_spec
                0x8081a6fc                nand_env_init
                0x8081a718                writeenv
                0x8081a7dc                nand_saveenv
                0x8081a888                readenv
                0x8081a94c                nand_env_relocate_spec
 .text          0x8081a9a8      0x1dc common/libcommon.a(env_sf.o)
                0x8081a9a8                sf_env_get_char_spec
                0x8081a9b4                sf_saveenv
                0x8081aabc                sf_env_relocate_spec
                0x8081ab68                sf_env_init
 .text          0x8081ab84      0x194 common/libcommon.a(exports.o)
                0x8081ab88                get_version
                0x8081ab90                jumptable_init
 .text          0x8081ad18      0x480 common/libcommon.a(hi3516a_ddr_training_printf.o)
                0x8081ad18                hi3516a_ddr_training_result
 .text          0x8081b198      0x72c common/libcommon.a(image.o)
                0x8081b1cc                image_check_hcrc
                0x8081b21c                image_check_dcrc
                0x8081b258                image_multi_count
                0x8081b274                image_multi_getimg
                0x8081b2fc                getenv_yesno
                0x8081b324                getenv_bootm_low
                0x8081b358                getenv_bootm_size
                0x8081b38c                memmove_wd
                0x8081b398                genimg_print_size
                0x8081b3c8                get_table_entry_name
                0x8081b3f4                genimg_get_os_name
                0x8081b40c                genimg_get_arch_name
                0x8081b424                genimg_get_type_name
                0x8081b43c                genimg_get_comp_name
                0x8081b454                image_print_contents
                0x8081b5c8                get_table_entry_id
                0x8081b618                genimg_get_os_id
                0x8081b630                genimg_get_arch_id
                0x8081b648                genimg_get_type_id
                0x8081b660                genimg_get_comp_id
                0x8081b678                genimg_get_format
                0x8081b68c                genimg_get_image
                0x8081b690                genimg_has_config
                0x8081b698                boot_get_ramdisk
 .text          0x8081b8c4     0x1294 common/libcommon.a(main.o)
                0x8081bc68                __show_boot_progress
                0x8081bc68                show_boot_progress
                0x8081bc6c                readline_into_buffer
                0x8081c590                readline
                0x8081c5ac                parse_line
                0x8081c634                run_command
                0x8081c7c8                main_loop
                0x8081c954                run_command_slave
 .text          0x8081cb58      0x708 common/libcommon.a(miiphyutil.o)
                0x8081cb58                miiphy_init
                0x8081cb74                miiphy_register
                0x8081cc50                miiphy_set_current_dev
                0x8081ccb0                miiphy_get_current_dev
                0x8081ccc8                miiphy_read
                0x8081cd58                miiphy_write
                0x8081cde8                miiphy_listdev
                0x8081ce54                miiphy_info
                0x8081cedc                miiphy_reset
                0x8081cf7c                miiphy_is_1000base_x
                0x8081cfc0                miiphy_speed
                0x8081d0d0                miiphy_duplex
                0x8081d20c                miiphy_link
 .text          0x8081d260      0x16c common/libcommon.a(stdio.o)
                0x8081d260                stdio_get_list
                0x8081d26c                stdio_get_by_name
                0x8081d2b8                stdio_clone
                0x8081d308                stdio_register
                0x8081d344                stdio_init
 .text          0x8081d3cc     0x16b4 common/libcommon.a(usb.o)
                0x8081d43c                wait_ms
                0x8081d460                usb_stop
                0x8081d4a0                usb_disable_asynch
                0x8081d4b8                usb_submit_int_msg
                0x8081d4e0                usb_control_msg
                0x8081d5b8                usb_bulk_msg
                0x8081d644                usb_maxpacket
                0x8081d660                usb_set_maxpacket
                0x8081d6c4                usb_parse_config
                0x8081d87c                usb_clear_halt
                0x8081d914                usb_get_descriptor
                0x8081d970                usb_get_configuration_no
                0x8081da1c                usb_set_address
                0x8081da5c                usb_set_interface
                0x8081db14                usb_set_configuration
                0x8081db78                usb_set_protocol
                0x8081dbcc                usb_set_idle
                0x8081dc28                usb_get_report
                0x8081dc8c                usb_get_class_descriptor
                0x8081dcf0                usb_get_string
                0x8081de70                usb_string
                0x8081df70                usb_get_dev_index
                0x8081df9c                usb_alloc_new_device
                0x8081e02c                usb_free_device
                0x8081e078                usb_scan_devices_debug
                0x8081e0cc                usb_get_hub_descriptor
                0x8081e124                usb_clear_hub_feature
                0x8081e174                usb_clear_port_feature
                0x8081e1c8                usb_set_port_feature
                0x8081e21c                usb_get_hub_status
                0x8081e26c                usb_get_port_status
                0x8081e360                usb_hub_allocate
                0x8081e3a8                usb_hub_configure
                0x8081e5b4                usb_new_device
                0x8081e820                usb_init
                0x8081e920                usb_hub_port_connect_change
 .text          0x8081ea80     0x14b8 common/libcommon.a(usb_storage.o)
                0x8081ed40                usb_stor_get_dev
                0x8081ed64                usb_show_progress
                0x8081ed70                usb_stor_read
                0x8081ef5c                usb_stor_write
                0x8081f148                usb_stor_info
                0x8081f1b4                usb_stor_BBB_comdat
                0x8081f290                usb_stor_CB_comdat
                0x8081f4b8                usb_stor_CBI_get_status
                0x8081f55c                usb_stor_CB_transport
                0x8081f754                usb_stor_BBB_clear_endpt_stall
                0x8081f7a0                usb_stor_BBB_transport
                0x8081f96c                usb_storage_probe
                0x8081fb7c                usb_stor_get_info
                0x8081fde0                usb_stor_scan
 .text          0x8081ff38      0x8bc common/libcommon.a(xyzModem.o)
                0x8081ff38                CYGACC_COMM_IF_GETC_TIMEOUT
                0x80820214                CYGACC_COMM_IF_PUTC
                0x8082021c                parse_num
                0x80820354                xyzModem_stream_open
                0x808204a0                xyzModem_stream_read
                0x808206ec                xyzModem_stream_close
                0x80820740                xyzModem_stream_terminate
                0x808207d4                xyzModem_error
 .text          0x808207f4        0x0 common/libcommon.a(ddr_training_entry.o)
 .text          0x808207f4        0x8 product/libproduct.a(sample.o)
                0x808207f4                product_control
 .text          0x808207fc       0xd0 board/hi3516a/libhi3516a.a(board.o)
                0x808207fc                get_boot_media
                0x8082080c                boot_flag_init
                0x80820844                board_init
                0x8082088c                misc_init_r
                0x808208ac                dram_init
 .text          0x808208cc       0x44 lib/libgeneric.a(crc16.o)
                0x808208cc                cyg_crc16
 .text          0x80820910       0xf0 lib/libgeneric.a(crc32.o)
                0x80820910                crc32_no_comp
                0x808209e8                crc32
                0x808209fc                crc32_wd
 .text          0x80820a00        0x0 lib/libgeneric.a(ctype.o)
 .text          0x80820a00      0x2b8 lib/libgeneric.a(display_options.o)
                0x80820a00                display_options
                0x80820a20                print_size
                0x80820b60                print_buffer
 .text          0x80820cb8       0xd0 lib/libgeneric.a(div64.o)
                0x80820cb8                __div64_32
 .text          0x80820d88      0x1d0 lib/libgeneric.a(gunzip.o)
                0x80820d88                zalloc
                0x80820d98                zfree
                0x80820da0                zunzip
                0x80820e90                gunzip
 .text          0x80820f58       0x64 lib/libgeneric.a(net_utils.o)
                0x80820f58                string_to_ip
 .text          0x80820fbc      0x5b8 lib/libgeneric.a(string.o)
                0x80820fbc                strcpy
                0x80820fd4                strncpy
                0x80820ff8                strcat
                0x80821024                strncat
                0x8082107c                strcmp
                0x808210a4                strncmp
                0x808210e4                strchr
                0x80821110                strlen
                0x80821130                strrchr
                0x8082116c                strnlen
                0x8082119c                strdup
                0x808211d8                strspn
                0x80821214                strpbrk
                0x80821250                strtok
                0x808212d8                strsep
                0x80821310                strswab
                0x80821358                memset
                0x808213b8                bcopy
                0x808213d8                memcpy
                0x80821430                memmove
                0x8082147c                memcmp
                0x808214b0                memscan
                0x808214dc                strstr
                0x80821544                memchr
 .text          0x80821574       0x30 lib/libgeneric.a(time.o)
                0x80821574                udelay
 .text          0x808215a4      0xe60 lib/libgeneric.a(vsprintf.o)
                0x80821aa8                simple_strtoul
                0x80821b60                simple_strtol
                0x80821b88                ustrtoul
                0x80821bf8                simple_strtoull
                0x80821cd4                vsprintf
                0x808222f0                sprintf
                0x80822318                panic
                0x80822368                ultohstr
 .text          0x80822404      0x1c0 lib/libgeneric.a(match_table.o)
                0x80822404                reg2type
                0x80822434                type2reg
                0x80822464                str2type
                0x808224b4                type2str
                0x808224e4                match_reg_to_type
                0x80822514                match_type_to_reg
                0x80822544                match_data_to_type
                0x80822594                match_type_to_data
 .text          0x808225c4     0x255c lib/libgeneric.a(zlib.o)
                0x808225c4                zcalloc
                0x808225cc                zcfree
                0x808225d4                inflate_fast
                0x80822b34                inflate_table
                0x80823094                inflateReset
                0x80823134                inflateInit2_
                0x80823238                inflateInit_
                0x8082324c                inflateEnd
                0x808232d0                adler32
                0x80823614                inflate
 .text          0x80824b20      0x234 arch/arm/cpu/hi3516a/hi3516a/libhi3516a.a(timer.o)
                0x80824b20                reset_timer_masked
                0x80824b40                timer_init
                0x80824b80                reset_timer
                0x80824b84                get_timer_masked
                0x80824bbc                get_timer
                0x80824bd0                set_timer
                0x80824be0                get_ticks
                0x80824bf0                get_tbclk
                0x80824c1c                __udelay
                0x80824cc0                udelay_masked
 .text          0x80824d54      0x1a0 arch/arm/lib/libarm.a(bootm.o)
                0x80824d54                do_bootm_linux
 .text          0x80824ef4        0x4 arch/arm/lib/libarm.a(cache.o)
                0x80824ef4                flush_cache
 .text          0x80824ef8       0x68 arch/arm/lib/libarm.a(process.o)
                0x80824ef8                add_shutdown
                0x80824f2c                do_shutdown
 .text          0x80824f60       0xf4 arch/arm/lib/libarm.a(cache-cp15.o)
                0x80824f90                icache_enable
                0x80824fa8                icache_disable
                0x80824fc0                icache_status
                0x80824fcc                dcache_enable
                0x80824fe4                dcache_disable
                0x80824ffc                dcache_status
                0x80825008                enable_mmu
                0x80825038                stop_mmu
 .text          0x80825054       0x30 arch/arm/lib/libarm.a(reset.o)
                0x80825054                do_reset
 .text          0x80825084      0x2bc arch/arm/lib/libarm.a(ddr_layout.o)
                0x80825084                insert_ddr_layout
                0x8082521c                get_ddr_free
                0x808252b0                show_ddr_layout
 .text          0x80825340       0x9c arch/arm/lib/libarm.a(ddr_size.o)
                0x80825340                get_ddr_size
 .text          0x808253dc      0x1dc arch/arm/lib/libarm.a(cpu_info.o)
                0x80825450                get_chipid
                0x80825488                get_bootmedia
                0x808254cc                get_timer_clock
                0x80825508                get_cpu_name
                0x80825518                get_max_ddr_size
                0x80825528                get_cpu_version
                0x8082558c                get_cpudevs
 .text          0x808255b8      0x108 arch/arm/lib/libarm.a(mmu.o)
                0x808255b8                mmu_pagedir_init
                0x808255d4                mmu_pagedir_cached_range
                0x808255f4                mmu_pagedir_nocached_range
                0x80825624                flush_cache_off
                0x80825638                mmu_startup
                0x80825674                mmu_turnoff
                0x8082568c                dcache_stop
                0x8082569c                dcache_start
                0x808256ac                dcache_stop_noflush
 .text          0x808256c0      0x1e0 arch/arm/lib/libarm.a(cache_ops.o)
                0x808256c0                dcache_flush_all
                0x80825760                dcache_inv_all
                0x80825800                dcache_inv_range
                0x80825860                dcache_clean_range
 .text          0x808258a0     0x1284 fs/fat/libfat.a(fat.o)
                0x80825f20                fat_register_device
                0x80826070                do_fat_read
                0x80826988                file_fat_detectfs
                0x80826adc                file_fat_ls
                0x80826aec                file_fat_read
 .text          0x80826b24      0x380 disk/libdisk.a(part.o)
                0x80826b24                get_dev
                0x80826b84                dev_print
                0x80826d84                init_part
                0x80826da0                get_partition_info
                0x80826dc8                print_part
 .text          0x80826ea4      0x4c4 disk/libdisk.a(part_dos.o)
                0x808272cc                test_part_dos
                0x8082731c                print_part_dos
                0x80827348                get_partition_info_dos
 .text          0x80827368     0x1014 drivers/mtd/nand/libnand.a(nand_util.o)
                0x808273f4                nand_erase_opts
                0x808277cc                nand_write_yaffs_skip_bad
                0x80827b68                nand_fill_ecc
                0x80827be8                nand_read_yaffs_skip_bad
                0x80827fd0                nand_write_skip_bad
                0x808281d0                nand_read_skip_bad
 .text          0x8082837c      0x274 drivers/mtd/spi/libspi_flash.a(spi_ids.o)
                0x8082837c                spi_serach_ids
                0x808284e0                spi_search_rw
                0x80828554                spi_get_erase
                0x808285cc                spi_ids_init
                0x808285ec                spi_ids_exit
 .text          0x808285f0     0x18cc drivers/usb/host/hiusb/libhiusb.a(hiusb-ohci.o)
                0x80828890                sohci_submit_job
                0x80828e74                rh_check_port_status
                0x80828ec8                submit_common_msg
                0x808294a0                submit_bulk_msg
                0x808294bc                submit_control_msg
                0x80829af8                submit_int_msg
                0x80829b00                usb_lowlevel_init
                0x80829e8c                usb_lowlevel_stop
 .text          0x80829ebc       0x24 arch/arm/cpu/hi3516a/libhi3516a.a(cpu.o)
                0x80829ebc                cleanup_before_linux
 .text          0x80829ee0       0x20 /home/jun/hi3516dv100/3.software_source_code/osdrv/opensource/uboot/u-boot-2010.06/arch/arm/lib/eabi_compat.o
                0x80829ee0                raise
                0x80829efc                __aeabi_unwind_cpp_pr0
 .text          0x80829f00      0x20c /opt/hisi-linux/x86-arm/arm-hisiv300-linux/bin/../lib/gcc/arm-hisiv300-linux-uclibcgnueabi/4.8.3/libgcc.a(_udivsi3.o)
                0x80829f00                __udivsi3
                0x80829f00                __aeabi_uidiv
                0x8082a0ec                __aeabi_uidivmod
 .text          0x8082a10c      0x240 /opt/hisi-linux/x86-arm/arm-hisiv300-linux/bin/../lib/gcc/arm-hisiv300-linux-uclibcgnueabi/4.8.3/libgcc.a(_divsi3.o)
                0x8082a10c                __aeabi_idiv
                0x8082a10c                __divsi3
                0x8082a32c                __aeabi_idivmod
 .text          0x8082a34c       0x1c /opt/hisi-linux/x86-arm/arm-hisiv300-linux/bin/../lib/gcc/arm-hisiv300-linux-uclibcgnueabi/4.8.3/libgcc.a(_lshrdi3.o)
                0x8082a34c                __aeabi_llsr
                0x8082a34c                __lshrdi3
 .text          0x8082a368       0x1c /opt/hisi-linux/x86-arm/arm-hisiv300-linux/bin/../lib/gcc/arm-hisiv300-linux-uclibcgnueabi/4.8.3/libgcc.a(_ashrdi3.o)
                0x8082a368                __ashrdi3
                0x8082a368                __aeabi_lasr
 .text          0x8082a384       0x1c /opt/hisi-linux/x86-arm/arm-hisiv300-linux/bin/../lib/gcc/arm-hisiv300-linux-uclibcgnueabi/4.8.3/libgcc.a(_ashldi3.o)
                0x8082a384                __ashldi3
                0x8082a384                __aeabi_llsl
 .text          0x8082a3a0       0x10 /opt/hisi-linux/x86-arm/arm-hisiv300-linux/bin/../lib/gcc/arm-hisiv300-linux-uclibcgnueabi/4.8.3/libgcc.a(_dvmd_lnx.o)
                0x8082a3a0                __aeabi_ldiv0
                0x8082a3a0                __aeabi_idiv0

.glue_7         0x8082a3b0        0x0
 .glue_7        0x00000000        0x0 linker stubs

.glue_7t        0x8082a3b0        0x0
 .glue_7t       0x00000000        0x0 linker stubs

.vfp11_veneer   0x8082a3b0        0x0
 .vfp11_veneer  0x00000000        0x0 linker stubs

.v4_bx          0x8082a3b0        0x0
 .v4_bx         0x00000000        0x0 linker stubs

.iplt           0x8082a3b0        0x0
 .iplt          0x00000000        0x0 arch/arm/cpu/hi3516a/start.o

.text.unlikely  0x8082a3b0      0x2bc
 .text.unlikely
                0x8082a3b0      0x2bc common/libcommon.a(cmd_nand.o)
                0x8082a66c                . = ALIGN (0x4)

.rodata         0x8082a66c     0x9013
 *(SORT(.rodata*))
 .rodata        0x8082a66c       0x80 arch/arm/lib/libarm.a(interrupts.o)
 .rodata        0x8082a6ec       0x90 drivers/mtd/nand/hinfc610/libhinfcv610.a(hinfc610_spl_ids.o)
 .rodata        0x8082a77c       0x9c drivers/mtd/spi/hisfc350/libhisfcv350.a(hisfc350.o)
 .rodata        0x8082a818        0x8 drivers/mtd/spi/hisfc350/libhisfcv350.a(hisfc350_spi_ids.o)
 .rodata        0x8082a820       0x44 drivers/net/higmacv300/libhigmacv300.a(higmac.o)
 .rodata        0x8082a864       0x4c common/libcommon.a(cmd_bootm.o)
 .rodata        0x8082a8b0       0x20 common/libcommon.a(cmd_nand.o)
 .rodata        0x8082a8d0        0xc common/libcommon.a(cmd_usb.o)
 .rodata        0x8082a8dc       0x20 common/libcommon.a(xyzModem.o)
 .rodata        0x8082a8fc      0x400 lib/libgeneric.a(crc32.o)
 .rodata        0x8082acfc       0x3c lib/libgeneric.a(vsprintf.o)
                0x8082ad0c                hex_asc
 .rodata        0x8082ad38      0x9cc lib/libgeneric.a(zlib.o)
                0x8082b6dc                z_errmsg
 .rodata        0x8082b704       0x10 disk/libdisk.a(part.o)
 .rodata        0x8082b714       0x40 drivers/usb/host/hiusb/libhiusb.a(hiusb-ohci.o)
 .rodata        0x8082b754      0x200 common/libcommon.a(download_process.o)
 .rodata        0x8082b954      0x200 lib/libgeneric.a(crc16.o)
 .rodata        0x8082bb54       0x2e arch/arm/lib/libarm.a(board.o)
                0x8082bb54                version_string
 .rodata        0x8082bb82        0x7 net/libnet.a(net.o)
 .rodata        0x8082bb89        0x9 net/libnet.a(tftp.o)
 .rodata        0x8082bb92        0x5 drivers/mtd/nand/libnand.a(nand.o)
 .rodata        0x8082bb97       0x64 drivers/mtd/nand/libnand.a(nand_base.o)
 .rodata        0x8082bbfb      0x100 drivers/mtd/nand/libnand.a(nand_ecc.o)
 .rodata        0x8082bcfb        0xc drivers/mtd/nand/hinfc610/libhinfcv610.a(hinfc610_read_retry_hynix_bg_cdie.o)
 .rodata        0x8082bd07       0x20 drivers/mtd/nand/hinfc610/libhinfcv610.a(hinfc610_read_retry_hynix_bg_bdie.o)
 .rodata        0x8082bd27        0xc drivers/mtd/nand/hinfc610/libhinfcv610.a(hinfc610_read_retry_hynix_cg_adie.o)
 .rodata        0x8082bd33       0x3c drivers/mtd/nand/hinfc610/libhinfcv610.a(hinfc610_read_retry_samsung.o)
 .rodata        0x8082bd6f        0x6 drivers/mtd/nand/hinfc610/libhinfcv610.a(hinfc610_read_retry_toshiba.o)
 .rodata        0x8082bd75        0xf drivers/mtd/spi/libspi_flash.a(spi_compatible.o)
 .rodata        0x8082bd84       0x10 common/libcommon.a(cmd_ddr_training_v300.o)
 .rodata        0x8082bd94       0x16 common/libcommon.a(command.o)
 .rodata        0x8082bdaa       0x12 common/libcommon.a(usb_storage.o)
 .rodata        0x8082bdbc        0x6 lib/libgeneric.a(display_options.o)
 .rodata.str1.1
                0x8082bdc2       0x53 arch/arm/lib/libarm.a(board.o)
 .rodata.str1.1
                0x8082be15      0x264 arch/arm/lib/libarm.a(interrupts.o)
                                0x27b (松开之前的大小)
 .rodata.str1.1
                0x8082c079       0x16 net/libnet.a(eth.o)
 .rodata.str1.1
                0x8082c08f      0x1bf net/libnet.a(net.o)
                                0x1cf (松开之前的大小)
 .rodata.str1.1
                0x8082c24e       0x43 net/libnet.a(rarp.o)
 .rodata.str1.1
                0x8082c291      0x2b4 net/libnet.a(tftp.o)
                                0x2f7 (松开之前的大小)
 .rodata.str1.1
                0x8082c545       0x70 net/libnet.a(bootp.o)
                                 0xa9 (松开之前的大小)
 .rodata.str1.1
                0x8082c5b5       0x17 drivers/mtd/nand/libnand.a(nand.o)
 .rodata.str1.1
                0x8082c5cc      0x2d2 drivers/mtd/nand/libnand.a(nand_base.o)
                                0x2d4 (松开之前的大小)
 .rodata.str1.1
                0x8082c89e      0x309 drivers/mtd/nand/libnand.a(nand_bbt.o)
 .rodata.str1.1
                0x8082cba7      0x360 drivers/mtd/nand/libnand.a(nand_ids.o)
                                0x376 (松开之前的大小)
 .rodata.str1.1
                0x8082cf07       0x4e drivers/mtd/nand/libnand.a(hinfc_common.o)
                                 0x61 (松开之前的大小)
 .rodata.str1.1
                0x8082cf55      0x66b drivers/mtd/nand/hinfc610/libhinfcv610.a(hinfc610.o)
                                0x674 (松开之前的大小)
 .rodata.str1.1
                0x8082d5c0      0x398 drivers/mtd/nand/hinfc610/libhinfcv610.a(hinfc610_spl_ids.o)
 .rodata.str1.1
                0x8082d958       0x93 drivers/mtd/nand/hinfc610/libhinfcv610.a(hinfc610_read_retry_hynix_bg_cdie.o)
                                 0xc1 (松开之前的大小)
 .rodata.str1.1
                0x8082d9eb       0x24 drivers/mtd/nand/hinfc610/libhinfcv610.a(hinfc610_read_retry_hynix_bg_bdie.o)
                                 0x52 (松开之前的大小)
 .rodata.str1.1
                0x8082da0f       0x68 drivers/mtd/nand/hinfc610/libhinfcv610.a(hinfc610_read_retry_hynix_cg_adie.o)
                                 0xc0 (松开之前的大小)
 .rodata.str1.1
                0x8082da77       0x1d drivers/mtd/nand/hinfc610/libhinfcv610.a(hinfc610_read_retry_micron.o)
                                 0x4b (松开之前的大小)
 .rodata.str1.1
                0x8082da94       0x1e drivers/mtd/nand/hinfc610/libhinfcv610.a(hinfc610_read_retry_samsung.o)
                                 0x4c (松开之前的大小)
 .rodata.str1.1
                0x8082dab2       0x1e drivers/mtd/nand/hinfc610/libhinfcv610.a(hinfc610_read_retry_toshiba.o)
                                 0x4c (松开之前的大小)
 .rodata.str1.1
                0x8082dad0       0xce drivers/mtd/spi/libspi_flash.a(spi_compatible.o)
                                 0xe3 (松开之前的大小)
 .rodata.str1.1
                0x8082db9e      0x579 drivers/mtd/spi/hisfc350/libhisfcv350.a(hisfc350.o)
                                0x5be (松开之前的大小)
 .rodata.str1.1
                0x8082e117      0x4d3 drivers/mtd/spi/hisfc350/libhisfcv350.a(hisfc350_spi_ids.o)
                                0x500 (松开之前的大小)
 .rodata.str1.1
                0x8082e5ea      0x459 drivers/net/higmacv300/libhigmacv300.a(higmac.o)
                                0x491 (松开之前的大小)
 .rodata.str1.1
                0x8082ea43       0x95 common/libcommon.a(cmd_boot.o)
 .rodata.str1.1
                0x8082ead8      0x470 common/libcommon.a(cmd_bootm.o)
                                0x48a (松开之前的大小)
 .rodata.str1.1
                0x8082ef48      0x35b common/libcommon.a(cmd_ddr_training_v300.o)
                                0x37b (松开之前的大小)
 .rodata.str1.1
                0x8082f2a3      0x23f common/libcommon.a(cmd_fat.o)
                                0x24c (松开之前的大小)
 .rodata.str1.1
                0x8082f4e2       0xc1 common/libcommon.a(cmd_getinfo.o)
                                 0xfe (松开之前的大小)
 .rodata.str1.1
                0x8082f5a3       0x36 common/libcommon.a(cmd_help.o)
                                 0x38 (松开之前的大小)
 .rodata.str1.1
                0x8082f5d9      0x1ba common/libcommon.a(cmd_load.o)
                                0x1d0 (松开之前的大小)
 .rodata.str1.1
                0x8082f793      0x2eb common/libcommon.a(cmd_mem.o)
                                0x2f9 (松开之前的大小)
 .rodata.str1.1
                0x8082fa7e      0x5b4 common/libcommon.a(cmd_mii.o)
                                0x5dc (松开之前的大小)
 .rodata.str1.1
                0x80830032      0x93f common/libcommon.a(cmd_nand.o)
                                0x9af (松开之前的大小)
 .rodata.str1.1
                0x80830971      0x162 common/libcommon.a(cmd_net.o)
                                0x19b (松开之前的大小)
 .rodata.str1.1
                0x80830ad3      0x187 common/libcommon.a(cmd_nvedit.o)
                                0x1e3 (松开之前的大小)
 .rodata.str1.1
                0x80830c5a      0x2f7 common/libcommon.a(cmd_sf.o)
                                0x393 (松开之前的大小)
 .rodata.str1.1
                0x80830f51      0x608 common/libcommon.a(cmd_usb.o)
                                0x74b (松开之前的大小)
 .rodata.str1.1
                0x80831559       0x1b common/libcommon.a(cmd_version.o)
                                 0x23 (松开之前的大小)
 .rodata.str1.1
                0x80831574       0x76 common/libcommon.a(command.o)
                                 0x92 (松开之前的大小)
 .rodata.str1.1
                0x808315ea       0x70 common/libcommon.a(console.o)
                                 0x74 (松开之前的大小)
 .rodata.str1.1
                0x8083165a       0x32 common/libcommon.a(download_process.o)
 .rodata.str1.1
                0x8083168c       0x33 common/libcommon.a(env_common.o)
                                 0x37 (松开之前的大小)
 .rodata.str1.1
                0x808316bf        0xf common/libcommon.a(env_common_func.o)
 .rodata.str1.1
                0x808316ce       0x69 common/libcommon.a(env_nand.o)
                                 0x74 (松开之前的大小)
 .rodata.str1.1
                0x80831737       0xea common/libcommon.a(env_sf.o)
                                0x12d (松开之前的大小)
 .rodata.str1.1
                0x80831821      0x25f common/libcommon.a(hi3516a_ddr_training_printf.o)
                                0x265 (松开之前的大小)
 .rodata.str1.1
                0x80831a80      0x43a common/libcommon.a(image.o)
                                0x4ce (松开之前的大小)
 .rodata.str1.1
                0x80831eba       0xd1 common/libcommon.a(main.o)
                                 0xe2 (松开之前的大小)
 .rodata.str1.1
                0x80831f8b      0x1b9 common/libcommon.a(miiphyutil.o)
                                0x1c9 (松开之前的大小)
 .rodata.str1.1
                0x80832144        0x7 common/libcommon.a(stdio.o)
                                 0x1b (松开之前的大小)
 .rodata.str1.1
                0x8083214b      0x2e3 common/libcommon.a(usb.o)
 .rodata.str1.1
                0x8083242e      0x1ff common/libcommon.a(usb_storage.o)
                                0x211 (松开之前的大小)
 .rodata.str1.1
                0x8083262d       0xe3 common/libcommon.a(xyzModem.o)
                                 0xe5 (松开之前的大小)
 .rodata.str1.1
                0x00000000       0xe3 board/hi3516a/libhi3516a.a(board.o)
                                  0x9 (松开之前的大小)
 .rodata.str1.1
                0x80832710       0x1a lib/libgeneric.a(display_options.o)
                                 0x43 (松开之前的大小)
 .rodata.str1.1
                0x8083272a       0x85 lib/libgeneric.a(gunzip.o)
 .rodata.str1.1
                0x808327af       0x21 lib/libgeneric.a(vsprintf.o)
 .rodata.str1.1
                0x808327d0      0x21c lib/libgeneric.a(zlib.o)
                                0x21d (松开之前的大小)
 .rodata.str1.1
                0x808329ec       0x42 arch/arm/lib/libarm.a(bootm.o)
                                 0x4b (松开之前的大小)
 .rodata.str1.1
                0x80832a2e       0x44 arch/arm/lib/libarm.a(process.o)
 .rodata.str1.1
                0x80832a72        0xf arch/arm/lib/libarm.a(reset.o)
 .rodata.str1.1
                0x80832a81      0x13c arch/arm/lib/libarm.a(ddr_layout.o)
                                0x13e (松开之前的大小)
 .rodata.str1.1
                0x00000000        0x1 arch/arm/lib/libarm.a(cpu_info.o)
 .rodata.str1.1
                0x80832bbd      0x15b fs/fat/libfat.a(fat.o)
                                0x169 (松开之前的大小)
 .rodata.str1.1
                0x80832d18      0x1af disk/libdisk.a(part.o)
                                0x1e0 (松开之前的大小)
 .rodata.str1.1
                0x80832ec7       0xe5 disk/libdisk.a(part_dos.o)
                                 0xf1 (松开之前的大小)
 .rodata.str1.1
                0x80832fac      0x428 drivers/mtd/nand/libnand.a(nand_util.o)
                                0x44b (松开之前的大小)
 .rodata.str1.1
                0x808333d4       0x4d drivers/mtd/spi/libspi_flash.a(spi_ids.o)
 .rodata.str1.1
                0x80833421      0x23b drivers/usb/host/hiusb/libhiusb.a(hiusb-ohci.o)
 .rodata.str1.1
                0x8083365c        0x8 arch/arm/cpu/hi3516a/libhi3516a.a(cpu.o)
                                 0x10 (松开之前的大小)
 .rodata.str1.1
                0x80833664       0x1b /home/jun/hi3516dv100/3.software_source_code/osdrv/opensource/uboot/u-boot-2010.06/arch/arm/lib/eabi_compat.o

.image          0x8083367f     0x10a4
 .image         0x8083367f     0x10a4 common/libcommon.a(ddr_training_entry.o)
                0x8083367f                hi3516a_ddr_training_data_start
                0x80834723                hi3516a_ddr_training_data_end

.rel.dyn        0x80834724        0x0
 .rel.iplt      0x00000000        0x0 arch/arm/cpu/hi3516a/start.o
 .rel.got       0x00000000        0x0 arch/arm/cpu/hi3516a/start.o
                0x80834724                . = ALIGN (0x4)

.data           0x80834728     0x5f20
 *(.data)
 .data          0x80834728        0x0 arch/arm/cpu/hi3516a/start.o
 .data          0x80834728        0x0 arch/arm/cpu/hi3516a/libhi3516a.a(lowlevel_init_v300.o)
 .data          0x80834728        0x0 arch/arm/cpu/hi3516a/libhi3516a.a(lowlevel_init_svb.o)
 .data          0x80834728        0x0 arch/arm/cpu/hi3516a/libhi3516a.a(ddrphy_training_func.o)
 .data          0x80834728        0x0 arch/arm/cpu/hi3516a/libhi3516a.a(ddrphy_training_print.o)
 .data          0x80834728        0x0 arch/arm/cpu/hi3516a/libhi3516a.a(uart.o)
 .data          0x80834728        0x0 arch/arm/cpu/hi3516a/libhi3516a.a(chip.o)
 .data          0x80834728        0x0 arch/arm/cpu/hi3516a/libhi3516a.a(ddrphy_training.o)
 .data          0x80834728        0x0 arch/arm/cpu/hi3516a/libhi3516a.a(ddr_dataeye_training.o)
 .data          0x80834728       0x24 arch/arm/lib/libarm.a(board.o)
                0x80834728                init_sequence
 .data          0x8083474c        0x0 arch/arm/lib/libarm.a(interrupts.o)
 .data          0x8083474c        0x0 net/libnet.a(eth.o)
 .data          0x8083474c        0xa net/libnet.a(net.o)
                0x8083474c                NetOurVLAN
                0x8083474e                NetBcastAddr
                0x80834754                NetOurNativeVLAN
 .data          0x80834756        0x0 net/libnet.a(rarp.o)
 *fill*         0x80834756        0x2 
 .data          0x80834758       0x1c net/libnet.a(tftp.o)
                0x80834764                upload_addr
                0x8083476c                TftpRRQTimeoutCountMax
                0x80834770                TftpRRQTimeoutMSecs
 .data          0x80834774        0x0 net/libnet.a(bootp.o)
 .data          0x80834774        0x4 drivers/mtd/nand/libnand.a(nand.o)
                0x80834774                nand_curr_device
 .data          0x80834778      0x920 drivers/mtd/nand/libnand.a(nand_base.o)
 .data          0x80835098      0x128 drivers/mtd/nand/libnand.a(nand_bbt.o)
 .data          0x808351c0        0x0 drivers/mtd/nand/libnand.a(nand_ecc.o)
 .data          0x808351c0      0x4f8 drivers/mtd/nand/libnand.a(nand_ids.o)
                0x808351c0                nand_manuf_ids
                0x80835250                nand_flash_ids
 .data          0x808356b8      0x184 drivers/mtd/nand/libnand.a(hinfc_common.o)
 .data          0x8083583c      0x348 drivers/mtd/nand/hinfc610/libhinfcv610.a(hinfc610.o)
                0x80835b80                nand_ip_version
 .data          0x80835b84       0x88 drivers/mtd/nand/hinfc610/libhinfcv610.a(hinfc610_gen.o)
 *fill*         0x80835c0c        0x4 
 .data          0x80835c10      0xcc0 drivers/mtd/nand/hinfc610/libhinfcv610.a(hinfc610_spl_ids.o)
 .data          0x808368d0       0x18 drivers/mtd/nand/hinfc610/libhinfcv610.a(hinfc610_read_retry_hynix_bg_cdie.o)
                0x808368d0                hinfc610_hynix_bg_cdie_read_retry
 .data          0x808368e8       0x18 drivers/mtd/nand/hinfc610/libhinfcv610.a(hinfc610_read_retry_hynix_bg_bdie.o)
                0x808368e8                hinfc610_hynix_bg_bdie_read_retry
 .data          0x80836900       0x18 drivers/mtd/nand/hinfc610/libhinfcv610.a(hinfc610_read_retry_hynix_cg_adie.o)
                0x80836900                hinfc610_hynix_cg_adie_read_retry
 .data          0x80836918       0x18 drivers/mtd/nand/hinfc610/libhinfcv610.a(hinfc610_read_retry_micron.o)
                0x80836918                hinfc610_micron_read_retry
 .data          0x80836930       0x18 drivers/mtd/nand/hinfc610/libhinfcv610.a(hinfc610_read_retry_samsung.o)
                0x80836930                hinfc610_samsung_read_retry
 .data          0x80836948       0x18 drivers/mtd/nand/hinfc610/libhinfcv610.a(hinfc610_read_retry_toshiba.o)
                0x80836948                hinfc610_toshiba_24nm_read_retry
 .data          0x80836960       0x68 drivers/mtd/nand/hinfc610/libhinfcv610.a(hinfc620_gen.o)
 .data          0x808369c8        0x0 drivers/mtd/spi/libspi_flash.a(spi_compatible.o)
 .data          0x808369c8        0x0 drivers/mtd/spi/hisfc350/libhisfcv350.a(hisfc350.o)
 .data          0x808369c8     0x2efc drivers/mtd/spi/hisfc350/libhisfcv350.a(hisfc350_spi_ids.o)
                0x808369c8                hisfc350_spi_info_table
 .data          0x808398c4       0x30 drivers/net/higmacv300/libhigmacv300.a(higmac.o)
                0x808398c8                higmac_board_info
 .data          0x808398f4        0x0 drivers/net/higmacv300/libhigmacv300.a(mdio.o)
 .data          0x808398f4        0x0 drivers/net/higmacv300/libhigmacv300.a(ctrl.o)
 .data          0x808398f4        0x0 drivers/serial/libserial.a(serial_pl01x.o)
 .data          0x808398f4        0x0 common/libcommon.a(cmd_boot.o)
 .data          0x808398f4       0x94 common/libcommon.a(cmd_bootm.o)
                0x808398f4                load_addr
 .data          0x80839988        0x0 common/libcommon.a(cmd_ddr_training_v300.o)
 .data          0x80839988        0x0 common/libcommon.a(cmd_fat.o)
 .data          0x80839988        0x0 common/libcommon.a(cmd_getinfo.o)
 .data          0x80839988        0x0 common/libcommon.a(cmd_help.o)
 .data          0x80839988        0x0 common/libcommon.a(cmd_load.o)
 .data          0x80839988        0x4 common/libcommon.a(cmd_mem.o)
                0x80839988                dp_last_length
 .data          0x8083998c      0x2e8 common/libcommon.a(cmd_mii.o)
                0x8083998c                reg_0_5_desc_tbl
                0x808399bc                desc_and_len_tbl
                0x808399ec                reg_5_desc_tbl
                0x80839a7c                reg_4_desc_tbl
                0x80839b0c                reg_3_desc_tbl
                0x80839b30                reg_2_desc_tbl
                0x80839b3c                reg_1_desc_tbl
                0x80839bfc                reg_0_desc_tbl
 .data          0x80839c74       0x9c common/libcommon.a(cmd_nand.o)
 .data          0x80839d10        0x0 common/libcommon.a(cmd_net.o)
 .data          0x80839d10        0x4 common/libcommon.a(cmd_nvedit.o)
 .data          0x80839d14        0x0 common/libcommon.a(cmd_sf.o)
 .data          0x80839d14        0x4 common/libcommon.a(cmd_usb.o)
 .data          0x80839d18        0x0 common/libcommon.a(cmd_version.o)
 .data          0x80839d18        0x0 common/libcommon.a(command.o)
 .data          0x80839d18        0x0 common/libcommon.a(console.o)
 .data          0x80839d18      0x414 common/libcommon.a(dlmalloc.o)
 .data          0x8083a12c        0x0 common/libcommon.a(download_process.o)
 .data          0x8083a12c       0xca common/libcommon.a(env_common.o)
                0x8083a12c                default_environment
 *fill*         0x8083a1f6        0x2 
 .data          0x8083a1f8       0x28 common/libcommon.a(env_common_func.o)
 .data          0x8083a220        0x4 common/libcommon.a(env_nand.o)
                0x8083a220                nand_env_name_spec
 .data          0x8083a224        0x4 common/libcommon.a(env_sf.o)
                0x8083a224                sf_env_name_spec
 .data          0x8083a228        0x0 common/libcommon.a(exports.o)
 .data          0x8083a228        0x0 common/libcommon.a(hi3516a_ddr_training_printf.o)
 .data          0x8083a228      0x204 common/libcommon.a(image.o)
 .data          0x8083a42c       0x14 common/libcommon.a(main.o)
 .data          0x8083a440        0x0 common/libcommon.a(miiphyutil.o)
 .data          0x8083a440        0xc common/libcommon.a(stdio.o)
                0x8083a440                stdio_names
 .data          0x8083a44c        0x0 common/libcommon.a(usb.o)
 .data          0x8083a44c       0x20 common/libcommon.a(usb_storage.o)
                0x8083a44c                us_direction
 .data          0x8083a46c        0x0 common/libcommon.a(xyzModem.o)
 .data          0x8083a46c        0x0 common/libcommon.a(ddr_training_entry.o)
 .data          0x8083a46c        0x0 product/libproduct.a(sample.o)
 .data          0x8083a46c        0x0 board/hi3516a/libhi3516a.a(board.o)
 .data          0x8083a46c        0x0 lib/libgeneric.a(crc16.o)
 .data          0x8083a46c        0x0 lib/libgeneric.a(crc32.o)
 .data          0x8083a46c      0x100 lib/libgeneric.a(ctype.o)
                0x8083a46c                _ctype
 .data          0x8083a56c        0x0 lib/libgeneric.a(display_options.o)
 .data          0x8083a56c        0x0 lib/libgeneric.a(div64.o)
 .data          0x8083a56c        0x0 lib/libgeneric.a(gunzip.o)
 .data          0x8083a56c        0x0 lib/libgeneric.a(net_utils.o)
 .data          0x8083a56c        0x0 lib/libgeneric.a(string.o)
 .data          0x8083a56c        0x0 lib/libgeneric.a(time.o)
 .data          0x8083a56c        0x0 lib/libgeneric.a(vsprintf.o)
 .data          0x8083a56c        0x0 lib/libgeneric.a(match_table.o)
 .data          0x8083a56c        0x0 lib/libgeneric.a(zlib.o)
 .data          0x8083a56c        0x0 arch/arm/cpu/hi3516a/hi3516a/libhi3516a.a(timer.o)
 .data          0x8083a56c        0x0 arch/arm/lib/libarm.a(bootm.o)
 .data          0x8083a56c        0x0 arch/arm/lib/libarm.a(cache.o)
 .data          0x8083a56c        0x0 arch/arm/lib/libarm.a(process.o)
 .data          0x8083a56c        0x0 arch/arm/lib/libarm.a(cache-cp15.o)
 .data          0x8083a56c        0x0 arch/arm/lib/libarm.a(reset.o)
 .data          0x8083a56c        0x0 arch/arm/lib/libarm.a(ddr_layout.o)
 .data          0x8083a56c        0x0 arch/arm/lib/libarm.a(ddr_size.o)
 .data          0x8083a56c        0x0 arch/arm/lib/libarm.a(cpu_info.o)
 .data          0x8083a56c        0x0 arch/arm/lib/libarm.a(mmu.o)
 .data          0x8083a56c        0x0 arch/arm/lib/libarm.a(cache_ops.o)
 .data          0x8083a56c        0x0 fs/fat/libfat.a(fat.o)
 .data          0x8083a56c        0x0 disk/libdisk.a(part.o)
 .data          0x8083a56c        0x0 disk/libdisk.a(part_dos.o)
 .data          0x8083a56c        0x0 drivers/mtd/nand/libnand.a(nand_util.o)
 .data          0x8083a56c        0x0 drivers/mtd/spi/libspi_flash.a(spi_ids.o)
 .data          0x8083a56c       0x4b drivers/usb/host/hiusb/libhiusb.a(hiusb-ohci.o)
 *fill*         0x8083a5b7        0x1 
 .data          0x8083a5b8       0x90 arch/arm/cpu/hi3516a/libhi3516a.a(cpu.o)
                0x8083a5b8                cpu_info
 .data          0x8083a648        0x0 /home/jun/hi3516dv100/3.software_source_code/osdrv/opensource/uboot/u-boot-2010.06/arch/arm/lib/eabi_compat.o
 .data          0x8083a648        0x0 /opt/hisi-linux/x86-arm/arm-hisiv300-linux/bin/../lib/gcc/arm-hisiv300-linux-uclibcgnueabi/4.8.3/libgcc.a(_udivsi3.o)
 .data          0x8083a648        0x0 /opt/hisi-linux/x86-arm/arm-hisiv300-linux/bin/../lib/gcc/arm-hisiv300-linux-uclibcgnueabi/4.8.3/libgcc.a(_divsi3.o)
 .data          0x8083a648        0x0 /opt/hisi-linux/x86-arm/arm-hisiv300-linux/bin/../lib/gcc/arm-hisiv300-linux-uclibcgnueabi/4.8.3/libgcc.a(_lshrdi3.o)
 .data          0x8083a648        0x0 /opt/hisi-linux/x86-arm/arm-hisiv300-linux/bin/../lib/gcc/arm-hisiv300-linux-uclibcgnueabi/4.8.3/libgcc.a(_ashrdi3.o)
 .data          0x8083a648        0x0 /opt/hisi-linux/x86-arm/arm-hisiv300-linux/bin/../lib/gcc/arm-hisiv300-linux-uclibcgnueabi/4.8.3/libgcc.a(_ashldi3.o)
 .data          0x8083a648        0x0 /opt/hisi-linux/x86-arm/arm-hisiv300-linux/bin/../lib/gcc/arm-hisiv300-linux-uclibcgnueabi/4.8.3/libgcc.a(_dvmd_lnx.o)

.igot.plt       0x8083a648        0x0
 .igot.plt      0x00000000        0x0 arch/arm/cpu/hi3516a/start.o

.got.plt        0x8083a648        0xc
 .got.plt       0x8083a648        0xc arch/arm/cpu/hi3516a/start.o
                0x8083a648                _GLOBAL_OFFSET_TABLE_
                0x8083a654                . = ALIGN (0x4)

.got            0x8083a654       0x24
 *(.got)
 .got           0x8083a654       0x24 arch/arm/cpu/hi3516a/start.o
                0x8083a678                __u_boot_cmd_start = .

.u_boot_cmd     0x8083a678      0x360
 *(.u_boot_cmd)
 .u_boot_cmd    0x8083a678       0x30 common/libcommon.a(cmd_boot.o)
                0x8083a678                __u_boot_cmd_reset
                0x8083a690                __u_boot_cmd_go
 .u_boot_cmd    0x8083a6a8       0x18 common/libcommon.a(cmd_bootm.o)
                0x8083a6a8                __u_boot_cmd_bootm
 .u_boot_cmd    0x8083a6c0       0x18 common/libcommon.a(cmd_ddr_training_v300.o)
                0x8083a6c0                __u_boot_cmd_ddr
 .u_boot_cmd    0x8083a6d8       0x48 common/libcommon.a(cmd_fat.o)
                0x8083a6d8                __u_boot_cmd_fatinfo
                0x8083a6f0                __u_boot_cmd_fatls
                0x8083a708                __u_boot_cmd_fatload
 .u_boot_cmd    0x8083a720       0x18 common/libcommon.a(cmd_getinfo.o)
                0x8083a720                __u_boot_cmd_getinfo
 .u_boot_cmd    0x8083a738       0x30 common/libcommon.a(cmd_help.o)
                0x8083a738                __u_boot_cmd_question_mark
                0x8083a750                __u_boot_cmd_help
 .u_boot_cmd    0x8083a768       0x30 common/libcommon.a(cmd_load.o)
                0x8083a768                __u_boot_cmd_loady
                0x8083a780                __u_boot_cmd_loadb
 .u_boot_cmd    0x8083a798       0xf0 common/libcommon.a(cmd_mem.o)
                0x8083a798                __u_boot_cmd_mtest
                0x8083a7b0                __u_boot_cmd_loop
                0x8083a7c8                __u_boot_cmd_base
                0x8083a7e0                __u_boot_cmd_crc32
                0x8083a7f8                __u_boot_cmd_cmp
                0x8083a810                __u_boot_cmd_cp
                0x8083a828                __u_boot_cmd_mw
                0x8083a840                __u_boot_cmd_nm
                0x8083a858                __u_boot_cmd_mm
                0x8083a870                __u_boot_cmd_md
 .u_boot_cmd    0x8083a888       0x18 common/libcommon.a(cmd_mii.o)
                0x8083a888                __u_boot_cmd_mii
 .u_boot_cmd    0x8083a8a0       0x30 common/libcommon.a(cmd_nand.o)
                0x8083a8a0                __u_boot_cmd_nboot
                0x8083a8b8                __u_boot_cmd_nand
 .u_boot_cmd    0x8083a8d0       0x60 common/libcommon.a(cmd_net.o)
                0x8083a8d0                __u_boot_cmd_ping
                0x8083a8e8                __u_boot_cmd_rarpboot
                0x8083a900                __u_boot_cmd_tftp
                0x8083a918                __u_boot_cmd_bootp
 .u_boot_cmd    0x8083a930       0x48 common/libcommon.a(cmd_nvedit.o)
                0x8083a930                __u_boot_cmd_setenv
                0x8083a948                __u_boot_cmd_printenv
                0x8083a960                __u_boot_cmd_saveenv
 .u_boot_cmd    0x8083a978       0x18 common/libcommon.a(cmd_sf.o)
                0x8083a978                __u_boot_cmd_sf
 .u_boot_cmd    0x8083a990       0x30 common/libcommon.a(cmd_usb.o)
                0x8083a990                __u_boot_cmd_usbboot
                0x8083a9a8                __u_boot_cmd_usb
 .u_boot_cmd    0x8083a9c0       0x18 common/libcommon.a(cmd_version.o)
                0x8083a9c0                __u_boot_cmd_version
                0x8083a9d8                __u_boot_cmd_end = .
                0x8083a9d8                . = ALIGN (0x4)
                0x8083a9d8                __bss_start = .

.bss            0x8083aa00    0x4f600
 *(.bss)
 .bss           0x8083aa00        0x0 arch/arm/cpu/hi3516a/start.o
 .bss           0x8083aa00        0x0 arch/arm/cpu/hi3516a/libhi3516a.a(lowlevel_init_v300.o)
 .bss           0x8083aa00        0x0 arch/arm/cpu/hi3516a/libhi3516a.a(lowlevel_init_svb.o)
 .bss           0x8083aa00        0x0 arch/arm/cpu/hi3516a/libhi3516a.a(ddrphy_training_func.o)
 .bss           0x8083aa00        0x0 arch/arm/cpu/hi3516a/libhi3516a.a(ddrphy_training_print.o)
 .bss           0x8083aa00        0x0 arch/arm/cpu/hi3516a/libhi3516a.a(uart.o)
 .bss           0x8083aa00        0x0 arch/arm/cpu/hi3516a/libhi3516a.a(chip.o)
 .bss           0x8083aa00        0x0 arch/arm/cpu/hi3516a/libhi3516a.a(ddrphy_training.o)
 .bss           0x8083aa00        0x0 arch/arm/cpu/hi3516a/libhi3516a.a(ddr_dataeye_training.o)
 .bss           0x8083aa00        0x4 arch/arm/lib/libarm.a(board.o)
                0x8083aa00                monitor_flash_len
 .bss           0x8083aa04        0x0 arch/arm/lib/libarm.a(interrupts.o)
 .bss           0x8083aa04        0x0 net/libnet.a(eth.o)
 .bss           0x8083aa04     0x25dc net/libnet.a(net.o)
                0x8083aa04                NetState
                0x8083aa08                NetPingIP
                0x8083aa20                NetOurEther
                0x8083aa28                NetTxPacket
                0x8083aa2c                NetOurIP
                0x8083aa30                NetArpWaitPacketIP
                0x8083aa34                NetOurSubnetMask
                0x8083aa38                NetOurGatewayIP
                0x8083aa3c                NetArpWaitReplyIP
                0x8083aa40                NetArpWaitTimerStart
                0x8083aa44                NetArpWaitTry
                0x8083aa4e                NetEtherNullAddr
                0x8083aa54                NetArpWaitPacketMAC
                0x8083aa58                NetArpWaitTxPacket
                0x8083aa5c                NetIPID
                0x8083aa64                NetArpWaitTxPacketSize
                0x8083aa68                NetRxPacket
                0x8083aa6c                NetRxPacketLen
                0x8083aa70                NetServerIP
                0x8083aa74                NetServerEther
                0x8083aa80                PktBuf
                0x8083c8a0                NetRxPackets
                0x8083c8b0                NetArpWaitPacketBuf
                0x8083ced4                NetBootFileXferSize
                0x8083ced8                BootFile
                0x8083cf58                NetBootFileSize
                0x8083cf5a                NetOurRootPath
                0x8083cf9a                NetOurHostName
                0x8083cfba                NetOurNISDomain
                0x8083cfdc                NetOurDNSIP
 .bss           0x8083cfe0        0x4 net/libnet.a(rarp.o)
                0x8083cfe0                RarpTry
 .bss           0x8083cfe4       0xc0 net/libnet.a(tftp.o)
                0x8083d070                upload_size
 .bss           0x8083d0a4        0x8 net/libnet.a(bootp.o)
                0x8083d0a4                BootpID
                0x8083d0a8                BootpTry
 *fill*         0x8083d0ac        0x4 
 .bss           0x8083d0b0      0x1d0 drivers/mtd/nand/libnand.a(nand.o)
                0x8083d0b0                nand_info
 .bss           0x8083d280       0x50 drivers/mtd/nand/libnand.a(nand_base.o)
                0x8083d2c8                nand_base_oob_resize
                0x8083d2cc                nand_base_get_special_flash_type
 .bss           0x8083d2d0        0x0 drivers/mtd/nand/libnand.a(nand_bbt.o)
 .bss           0x8083d2d0        0x0 drivers/mtd/nand/libnand.a(nand_ecc.o)
 .bss           0x8083d2d0        0x0 drivers/mtd/nand/libnand.a(nand_ids.o)
 .bss           0x8083d2d0        0x8 drivers/mtd/nand/libnand.a(hinfc_common.o)
                0x8083d2d0                nand_oob_resize
                0x8083d2d4                nand_get_spl_flash_type
 .bss           0x8083d2d8      0x124 drivers/mtd/nand/hinfc610/libhinfcv610.a(hinfc610.o)
 .bss           0x8083d3fc        0x0 drivers/mtd/nand/hinfc610/libhinfcv610.a(hinfc610_gen.o)
 *fill*         0x8083d3fc        0x4 
 .bss           0x8083d400       0x38 drivers/mtd/nand/hinfc610/libhinfcv610.a(hinfc610_spl_ids.o)
                0x8083d400                nandtag
 .bss           0x8083d438        0x4 drivers/mtd/nand/hinfc610/libhinfcv610.a(hinfc610_read_retry_hynix_bg_cdie.o)
 .bss           0x8083d43c        0x8 drivers/mtd/nand/hinfc610/libhinfcv610.a(hinfc610_read_retry_hynix_bg_bdie.o)
 .bss           0x8083d444        0x4 drivers/mtd/nand/hinfc610/libhinfcv610.a(hinfc610_read_retry_hynix_cg_adie.o)
 .bss           0x8083d448        0x0 drivers/mtd/nand/hinfc610/libhinfcv610.a(hinfc610_read_retry_micron.o)
 .bss           0x8083d448        0x0 drivers/mtd/nand/hinfc610/libhinfcv610.a(hinfc610_read_retry_samsung.o)
 .bss           0x8083d448        0x0 drivers/mtd/nand/hinfc610/libhinfcv610.a(hinfc610_read_retry_toshiba.o)
 .bss           0x8083d448        0x0 drivers/mtd/nand/hinfc610/libhinfcv610.a(hinfc620_gen.o)
 .bss           0x8083d448        0x8 drivers/mtd/spi/libspi_flash.a(spi_compatible.o)
 .bss           0x8083d450     0x1288 drivers/mtd/spi/hisfc350/libhisfcv350.a(hisfc350.o)
 .bss           0x8083e6d8        0x0 drivers/mtd/spi/hisfc350/libhisfcv350.a(hisfc350_spi_ids.o)
 .bss           0x8083e6d8       0x14 drivers/net/higmacv300/libhigmacv300.a(higmac.o)
 .bss           0x8083e6ec       0x10 drivers/net/higmacv300/libhigmacv300.a(mdio.o)
 .bss           0x8083e6fc        0x0 drivers/net/higmacv300/libhigmacv300.a(ctrl.o)
 .bss           0x8083e6fc        0x0 drivers/serial/libserial.a(serial_pl01x.o)
 .bss           0x8083e6fc        0x0 common/libcommon.a(cmd_boot.o)
 .bss           0x8083e6fc       0x8c common/libcommon.a(cmd_bootm.o)
 .bss           0x8083e788      0x65c common/libcommon.a(cmd_ddr_training_v300.o)
 .bss           0x8083ede4        0x0 common/libcommon.a(cmd_fat.o)
 .bss           0x8083ede4        0x0 common/libcommon.a(cmd_getinfo.o)
 .bss           0x8083ede4        0x0 common/libcommon.a(cmd_help.o)
 .bss           0x8083ede4       0x60 common/libcommon.a(cmd_load.o)
                0x8083edf0                his_pad_count
                0x8083edf4                his_pad_char
                0x8083ee0d                his_eol
                0x8083ee14                os_data_init
                0x8083ee24                os_data_char
                0x8083ee28                his_quote
                0x8083ee2c                send_ptr
                0x8083ee30                send_parms
 .bss           0x8083ee44       0x14 common/libcommon.a(cmd_mem.o)
                0x8083ee44                dp_last_addr
                0x8083ee48                dp_last_size
                0x8083ee50                mm_last_addr
                0x8083ee54                mm_last_size
 .bss           0x8083ee58       0x18 common/libcommon.a(cmd_mii.o)
                0x8083ee58                last_op
                0x8083ee5c                last_addr_lo
                0x8083ee60                last_addr_hi
                0x8083ee64                last_reg_lo
                0x8083ee68                last_reg_hi
                0x8083ee6c                last_data
 .bss           0x8083ee70        0x0 common/libcommon.a(cmd_nand.o)
 .bss           0x8083ee70        0x0 common/libcommon.a(cmd_net.o)
 .bss           0x8083ee70        0x0 common/libcommon.a(cmd_nvedit.o)
 .bss           0x8083ee70        0x4 common/libcommon.a(cmd_sf.o)
 .bss           0x8083ee74        0x0 common/libcommon.a(cmd_usb.o)
 .bss           0x8083ee74        0x0 common/libcommon.a(cmd_version.o)
 .bss           0x8083ee74      0x600 common/libcommon.a(command.o)
 .bss           0x8083f474        0x8 common/libcommon.a(console.o)
 .bss           0x8083f47c       0x44 common/libcommon.a(dlmalloc.o)
                0x8083f47c                mem_malloc_brk
                0x8083f480                mem_malloc_start
                0x8083f484                mem_malloc_end
 .bss           0x8083f4c0      0x400 common/libcommon.a(download_process.o)
 .bss           0x8083f8c0        0x0 common/libcommon.a(env_common.o)
 .bss           0x8083f8c0       0x20 common/libcommon.a(env_common_func.o)
                0x8083f8c0                env_cmn_func
                0x8083f8d8                env_name_spec
                0x8083f8dc                env_ptr
 .bss           0x8083f8e0        0x0 common/libcommon.a(env_nand.o)
 .bss           0x8083f8e0        0x4 common/libcommon.a(env_sf.o)
 .bss           0x8083f8e4        0x0 common/libcommon.a(exports.o)
 .bss           0x8083f8e4        0x0 common/libcommon.a(hi3516a_ddr_training_printf.o)
 .bss           0x8083f8e4        0x0 common/libcommon.a(image.o)
 .bss           0x8083f8e4     0x5878 common/libcommon.a(main.o)
                0x8083f8f0                hist_num
                0x8083f8f4                hist_list
                0x8083f944                hist_lines
                0x80844958                console_buffer
 .bss           0x8084515c        0xc common/libcommon.a(miiphyutil.o)
 .bss           0x80845168       0x48 common/libcommon.a(stdio.o)
                0x808451a4                stdio_devices
 .bss           0x808451b0    0x12b20 common/libcommon.a(usb.o)
                0x808451b0                usb_started
                0x808451bc                have_xhci_device
 .bss           0x80857cd0      0x5b8 common/libcommon.a(usb_storage.o)
 .bss           0x80858288      0x43c common/libcommon.a(xyzModem.o)
 .bss           0x808586c4        0x0 common/libcommon.a(ddr_training_entry.o)
 .bss           0x808586c4        0x0 product/libproduct.a(sample.o)
 .bss           0x808586c4        0x4 board/hi3516a/libhi3516a.a(board.o)
 .bss           0x808586c8        0x0 lib/libgeneric.a(crc16.o)
 .bss           0x808586c8        0x0 lib/libgeneric.a(crc32.o)
 .bss           0x808586c8        0x0 lib/libgeneric.a(ctype.o)
 .bss           0x808586c8        0x0 lib/libgeneric.a(display_options.o)
 .bss           0x808586c8        0x0 lib/libgeneric.a(div64.o)
 .bss           0x808586c8        0x0 lib/libgeneric.a(gunzip.o)
 .bss           0x808586c8        0x0 lib/libgeneric.a(net_utils.o)
 .bss           0x808586c8        0x4 lib/libgeneric.a(string.o)
                0x808586c8                ___strtok
 .bss           0x808586cc        0x0 lib/libgeneric.a(time.o)
 .bss           0x808586cc       0x14 lib/libgeneric.a(vsprintf.o)
 .bss           0x808586e0        0x0 lib/libgeneric.a(match_table.o)
 .bss           0x808586e0        0x0 lib/libgeneric.a(zlib.o)
 .bss           0x808586e0        0x8 arch/arm/cpu/hi3516a/hi3516a/libhi3516a.a(timer.o)
 .bss           0x808586e8        0x4 arch/arm/lib/libarm.a(bootm.o)
 .bss           0x808586ec        0x0 arch/arm/lib/libarm.a(cache.o)
 .bss           0x808586ec       0x2c arch/arm/lib/libarm.a(process.o)
 .bss           0x80858718        0x0 arch/arm/lib/libarm.a(cache-cp15.o)
 .bss           0x80858718        0x0 arch/arm/lib/libarm.a(reset.o)
 .bss           0x80858718       0xf4 arch/arm/lib/libarm.a(ddr_layout.o)
 .bss           0x8085880c        0x4 arch/arm/lib/libarm.a(ddr_size.o)
 .bss           0x80858810       0x28 arch/arm/lib/libarm.a(cpu_info.o)
 .bss           0x80858838        0x0 arch/arm/lib/libarm.a(mmu.o)
 .bss           0x80858838        0x0 arch/arm/lib/libarm.a(cache_ops.o)
 .bss           0x80858838    0x30054 fs/fat/libfat.a(fat.o)
                0x80858888                get_vfatname_block
                0x8086888c                do_fat_read_block
                0x8087888c                get_dentfromdir_block
 .bss           0x8088888c        0x0 disk/libdisk.a(part.o)
 .bss           0x8088888c        0x0 disk/libdisk.a(part_dos.o)
 .bss           0x8088888c        0x8 drivers/mtd/nand/libnand.a(nand_util.o)
                0x8088888c                ecc0_flag
                0x80888890                oobsize_real
 .bss           0x80888894      0x148 drivers/mtd/spi/libspi_flash.a(spi_ids.o)
                0x80888894                spitag
 *fill*         0x808889dc       0x24 
 .bss           0x80888a00     0x1600 drivers/usb/host/hiusb/libhiusb.a(hiusb-ohci.o)
                0x80888acc                urb_finished
                0x80888ad0                devgone
                0x80888ad4                got_rhsc
                0x80888ad8                urb_priv
                0x80888bb0                ohci_dev
                0x80888d40                phcca
                0x80888e00                ghcca
                0x80888f00                ptd
                0x80888f20                gtd
 .bss           0x8088a000        0x0 arch/arm/cpu/hi3516a/libhi3516a.a(cpu.o)
 .bss           0x8088a000        0x0 /home/jun/hi3516dv100/3.software_source_code/osdrv/opensource/uboot/u-boot-2010.06/arch/arm/lib/eabi_compat.o
 .bss           0x8088a000        0x0 /opt/hisi-linux/x86-arm/arm-hisiv300-linux/bin/../lib/gcc/arm-hisiv300-linux-uclibcgnueabi/4.8.3/libgcc.a(_udivsi3.o)
 .bss           0x8088a000        0x0 /opt/hisi-linux/x86-arm/arm-hisiv300-linux/bin/../lib/gcc/arm-hisiv300-linux-uclibcgnueabi/4.8.3/libgcc.a(_divsi3.o)
 .bss           0x8088a000        0x0 /opt/hisi-linux/x86-arm/arm-hisiv300-linux/bin/../lib/gcc/arm-hisiv300-linux-uclibcgnueabi/4.8.3/libgcc.a(_lshrdi3.o)
 .bss           0x8088a000        0x0 /opt/hisi-linux/x86-arm/arm-hisiv300-linux/bin/../lib/gcc/arm-hisiv300-linux-uclibcgnueabi/4.8.3/libgcc.a(_ashrdi3.o)
 .bss           0x8088a000        0x0 /opt/hisi-linux/x86-arm/arm-hisiv300-linux/bin/../lib/gcc/arm-hisiv300-linux-uclibcgnueabi/4.8.3/libgcc.a(_ashldi3.o)
 .bss           0x8088a000        0x0 /opt/hisi-linux/x86-arm/arm-hisiv300-linux/bin/../lib/gcc/arm-hisiv300-linux-uclibcgnueabi/4.8.3/libgcc.a(_dvmd_lnx.o)
                0x8088a000                _end = .
段 .text 的地址设置为 0x80800000
LOAD arch/arm/cpu/hi3516a/start.o
START GROUP
LOAD lib/libgeneric.a
LOAD lib/lzma/liblzma.a
LOAD lib/lzo/liblzo.a
LOAD lib/hw_dec/libhw_dec.a
LOAD arch/arm/cpu/hi3516a/libhi3516a.a
LOAD arch/arm/cpu/hi3516a/hi3516a/libhi3516a.a
LOAD arch/arm/lib/libarm.a
LOAD fs/cramfs/libcramfs.a
LOAD fs/fat/libfat.a
LOAD fs/fdos/libfdos.a
LOAD fs/jffs2/libjffs2.a
LOAD fs/reiserfs/libreiserfs.a
LOAD fs/ext2/libext2fs.a
LOAD fs/yaffs2/libyaffs2.a
LOAD fs/ubifs/libubifs.a
LOAD net/libnet.a
LOAD disk/libdisk.a
LOAD drivers/bios_emulator/libatibiosemu.a
LOAD drivers/block/libblock.a
LOAD drivers/dma/libdma.a
LOAD drivers/fpga/libfpga.a
LOAD drivers/gpio/libgpio.a
LOAD drivers/hwmon/libhwmon.a
LOAD drivers/i2c/libi2c.a
LOAD drivers/input/libinput.a
LOAD drivers/misc/libmisc.a
LOAD drivers/mmc/libmmc.a
LOAD drivers/mtd/libmtd.a
LOAD drivers/mtd/nand/libnand.a
LOAD drivers/mtd/nand/hinfc301/libhinfcv301.a
LOAD drivers/mtd/nand/hinfc504/libhinfcv504.a
LOAD drivers/mtd/nand/hinfc610/libhinfcv610.a
LOAD drivers/mtd/nand/hisnfc100/libhisnfcv100.a
LOAD drivers/mtd/nand/hifmc100/libhifmcv100.a
LOAD drivers/mtd/nand/hifmc100_nand/libhifmc100_nand.a
LOAD drivers/mtd/onenand/libonenand.a
LOAD drivers/mtd/ubi/libubi.a
LOAD drivers/mtd/spi/libspi_flash.a
LOAD drivers/mtd/spi/hisfc350/libhisfcv350.a
LOAD drivers/mtd/spi/hifmc100/libhifmcv100.a
LOAD drivers/mtd/spi/hisfc300new/libhisfcv300new.a
LOAD drivers/net/libnet.a
LOAD drivers/net/phy/libphy.a
LOAD drivers/net/higmacv300/libhigmacv300.a
LOAD drivers/net/hisfv300/libhisfv300.a
LOAD drivers/net/higmac/libhigmac.a
LOAD drivers/net/stmmac/libstmmac.a
LOAD drivers/pci/libpci.a
LOAD drivers/pcmcia/libpcmcia.a
LOAD drivers/power/libpower.a
LOAD drivers/spi/libspi.a
LOAD drivers/rtc/librtc.a
LOAD drivers/serial/libserial.a
LOAD drivers/twserial/libtws.a
LOAD drivers/usb/gadget/libusb_gadget.a
LOAD drivers/usb/gadget/hiudc/libhiudc.a
LOAD drivers/usb/host/libusb_host.a
LOAD drivers/usb/host/hiusb/libhiusb.a
LOAD drivers/usb/musb/libusb_musb.a
LOAD drivers/usb/phy/libusb_phy.a
LOAD drivers/video/libvideo.a
LOAD drivers/watchdog/libwatchdog.a
LOAD common/libcommon.a
LOAD lib/libfdt/libfdt.a
LOAD api/libapi.a
LOAD post/libpost.a
LOAD product/libproduct.a
LOAD product/hiupdate/libhiupdate.a
LOAD product/hiddrtv200/libhiddrtv200.a
LOAD board/hi3516a/libhi3516a.a
END GROUP
LOAD /home/jun/hi3516dv100/3.software_source_code/osdrv/opensource/uboot/u-boot-2010.06/arch/arm/lib/eabi_compat.o
LOAD /opt/hisi-linux/x86-arm/arm-hisiv300-linux/bin/../lib/gcc/arm-hisiv300-linux-uclibcgnueabi/4.8.3/libgcc.a
OUTPUT(u-boot elf32-littlearm)

.ARM.attributes
                0x00000000       0x29
 .ARM.attributes
                0x00000000       0x1d arch/arm/cpu/hi3516a/start.o
 .ARM.attributes
                0x0000001d       0x2d arch/arm/cpu/hi3516a/libhi3516a.a(lowlevel_init_v300.o)
 .ARM.attributes
                0x0000004a       0x2d arch/arm/cpu/hi3516a/libhi3516a.a(lowlevel_init_svb.o)
 .ARM.attributes
                0x00000077       0x1d arch/arm/cpu/hi3516a/libhi3516a.a(ddrphy_training_func.o)
 .ARM.attributes
                0x00000094       0x1d arch/arm/cpu/hi3516a/libhi3516a.a(ddrphy_training_print.o)
 .ARM.attributes
                0x000000b1       0x1d arch/arm/cpu/hi3516a/libhi3516a.a(uart.o)
 .ARM.attributes
                0x000000ce       0x2d arch/arm/cpu/hi3516a/libhi3516a.a(chip.o)
 .ARM.attributes
                0x000000fb       0x2d arch/arm/cpu/hi3516a/libhi3516a.a(ddrphy_training.o)
 .ARM.attributes
                0x00000128       0x2d arch/arm/cpu/hi3516a/libhi3516a.a(ddr_dataeye_training.o)
 .ARM.attributes
                0x00000155       0x2d arch/arm/lib/libarm.a(board.o)
 .ARM.attributes
                0x00000182       0x2d arch/arm/lib/libarm.a(interrupts.o)
 .ARM.attributes
                0x000001af       0x2d net/libnet.a(eth.o)
 .ARM.attributes
                0x000001dc       0x2d net/libnet.a(net.o)
 .ARM.attributes
                0x00000209       0x2d net/libnet.a(rarp.o)
 .ARM.attributes
                0x00000236       0x2d net/libnet.a(tftp.o)
 .ARM.attributes
                0x00000263       0x2d net/libnet.a(bootp.o)
 .ARM.attributes
                0x00000290       0x2d drivers/mtd/nand/libnand.a(nand.o)
 .ARM.attributes
                0x000002bd       0x2d drivers/mtd/nand/libnand.a(nand_base.o)
 .ARM.attributes
                0x000002ea       0x2d drivers/mtd/nand/libnand.a(nand_bbt.o)
 .ARM.attributes
                0x00000317       0x2d drivers/mtd/nand/libnand.a(nand_ecc.o)
 .ARM.attributes
                0x00000344       0x2d drivers/mtd/nand/libnand.a(nand_ids.o)
 .ARM.attributes
                0x00000371       0x2d drivers/mtd/nand/libnand.a(hinfc_common.o)
 .ARM.attributes
                0x0000039e       0x2d drivers/mtd/nand/hinfc610/libhinfcv610.a(hinfc610.o)
 .ARM.attributes
                0x000003cb       0x2d drivers/mtd/nand/hinfc610/libhinfcv610.a(hinfc610_gen.o)
 .ARM.attributes
                0x000003f8       0x2d drivers/mtd/nand/hinfc610/libhinfcv610.a(hinfc610_spl_ids.o)
 .ARM.attributes
                0x00000425       0x2d drivers/mtd/nand/hinfc610/libhinfcv610.a(hinfc610_read_retry_hynix_bg_cdie.o)
 .ARM.attributes
                0x00000452       0x2d drivers/mtd/nand/hinfc610/libhinfcv610.a(hinfc610_read_retry_hynix_bg_bdie.o)
 .ARM.attributes
                0x0000047f       0x2d drivers/mtd/nand/hinfc610/libhinfcv610.a(hinfc610_read_retry_hynix_cg_adie.o)
 .ARM.attributes
                0x000004ac       0x2d drivers/mtd/nand/hinfc610/libhinfcv610.a(hinfc610_read_retry_micron.o)
 .ARM.attributes
                0x000004d9       0x2d drivers/mtd/nand/hinfc610/libhinfcv610.a(hinfc610_read_retry_samsung.o)
 .ARM.attributes
                0x00000506       0x2d drivers/mtd/nand/hinfc610/libhinfcv610.a(hinfc610_read_retry_toshiba.o)
 .ARM.attributes
                0x00000533       0x2d drivers/mtd/nand/hinfc610/libhinfcv610.a(hinfc620_gen.o)
 .ARM.attributes
                0x00000560       0x2d drivers/mtd/spi/libspi_flash.a(spi_compatible.o)
 .ARM.attributes
                0x0000058d       0x2d drivers/mtd/spi/hisfc350/libhisfcv350.a(hisfc350.o)
 .ARM.attributes
                0x000005ba       0x2d drivers/mtd/spi/hisfc350/libhisfcv350.a(hisfc350_spi_ids.o)
 .ARM.attributes
                0x000005e7       0x2d drivers/net/higmacv300/libhigmacv300.a(higmac.o)
 .ARM.attributes
                0x00000614       0x2d drivers/net/higmacv300/libhigmacv300.a(mdio.o)
 .ARM.attributes
                0x00000641       0x2d drivers/net/higmacv300/libhigmacv300.a(ctrl.o)
 .ARM.attributes
                0x0000066e       0x2d drivers/serial/libserial.a(serial_pl01x.o)
 .ARM.attributes
                0x0000069b       0x2d common/libcommon.a(cmd_boot.o)
 .ARM.attributes
                0x000006c8       0x2d common/libcommon.a(cmd_bootm.o)
 .ARM.attributes
                0x000006f5       0x2d common/libcommon.a(cmd_ddr_training_v300.o)
 .ARM.attributes
                0x00000722       0x2d common/libcommon.a(cmd_fat.o)
 .ARM.attributes
                0x0000074f       0x2d common/libcommon.a(cmd_getinfo.o)
 .ARM.attributes
                0x0000077c       0x2d common/libcommon.a(cmd_help.o)
 .ARM.attributes
                0x000007a9       0x2d common/libcommon.a(cmd_load.o)
 .ARM.attributes
                0x000007d6       0x2d common/libcommon.a(cmd_mem.o)
 .ARM.attributes
                0x00000803       0x2d common/libcommon.a(cmd_mii.o)
 .ARM.attributes
                0x00000830       0x2d common/libcommon.a(cmd_nand.o)
 .ARM.attributes
                0x0000085d       0x2d common/libcommon.a(cmd_net.o)
 .ARM.attributes
                0x0000088a       0x2d common/libcommon.a(cmd_nvedit.o)
 .ARM.attributes
                0x000008b7       0x2d common/libcommon.a(cmd_sf.o)
 .ARM.attributes
                0x000008e4       0x2d common/libcommon.a(cmd_usb.o)
 .ARM.attributes
                0x00000911       0x2d common/libcommon.a(cmd_version.o)
 .ARM.attributes
                0x0000093e       0x2d common/libcommon.a(command.o)
 .ARM.attributes
                0x0000096b       0x2d common/libcommon.a(console.o)
 .ARM.attributes
                0x00000998       0x2d common/libcommon.a(dlmalloc.o)
 .ARM.attributes
                0x000009c5       0x2d common/libcommon.a(download_process.o)
 .ARM.attributes
                0x000009f2       0x2d common/libcommon.a(env_common.o)
 .ARM.attributes
                0x00000a1f       0x2d common/libcommon.a(env_common_func.o)
 .ARM.attributes
                0x00000a4c       0x2d common/libcommon.a(env_nand.o)
 .ARM.attributes
                0x00000a79       0x2d common/libcommon.a(env_sf.o)
 .ARM.attributes
                0x00000aa6       0x2d common/libcommon.a(exports.o)
 .ARM.attributes
                0x00000ad3       0x2d common/libcommon.a(hi3516a_ddr_training_printf.o)
 .ARM.attributes
                0x00000b00       0x2d common/libcommon.a(image.o)
 .ARM.attributes
                0x00000b2d       0x2d common/libcommon.a(main.o)
 .ARM.attributes
                0x00000b5a       0x2d common/libcommon.a(miiphyutil.o)
 .ARM.attributes
                0x00000b87       0x2d common/libcommon.a(stdio.o)
 .ARM.attributes
                0x00000bb4       0x2d common/libcommon.a(usb.o)
 .ARM.attributes
                0x00000be1       0x2d common/libcommon.a(usb_storage.o)
 .ARM.attributes
                0x00000c0e       0x2d common/libcommon.a(xyzModem.o)
 .ARM.attributes
                0x00000c3b       0x1d common/libcommon.a(ddr_training_entry.o)
 .ARM.attributes
                0x00000c58       0x2d product/libproduct.a(sample.o)
 .ARM.attributes
                0x00000c85       0x2d board/hi3516a/libhi3516a.a(board.o)
 .ARM.attributes
                0x00000cb2       0x2d lib/libgeneric.a(crc16.o)
 .ARM.attributes
                0x00000cdf       0x2d lib/libgeneric.a(crc32.o)
 .ARM.attributes
                0x00000d0c       0x2d lib/libgeneric.a(ctype.o)
 .ARM.attributes
                0x00000d39       0x2d lib/libgeneric.a(display_options.o)
 .ARM.attributes
                0x00000d66       0x2d lib/libgeneric.a(div64.o)
 .ARM.attributes
                0x00000d93       0x2d lib/libgeneric.a(gunzip.o)
 .ARM.attributes
                0x00000dc0       0x2d lib/libgeneric.a(net_utils.o)
 .ARM.attributes
                0x00000ded       0x2d lib/libgeneric.a(string.o)
 .ARM.attributes
                0x00000e1a       0x2d lib/libgeneric.a(time.o)
 .ARM.attributes
                0x00000e47       0x2d lib/libgeneric.a(vsprintf.o)
 .ARM.attributes
                0x00000e74       0x2d lib/libgeneric.a(match_table.o)
 .ARM.attributes
                0x00000ea1       0x2d lib/libgeneric.a(zlib.o)
 .ARM.attributes
                0x00000ece       0x2d arch/arm/cpu/hi3516a/hi3516a/libhi3516a.a(timer.o)
 .ARM.attributes
                0x00000efb       0x2d arch/arm/lib/libarm.a(bootm.o)
 .ARM.attributes
                0x00000f28       0x2d arch/arm/lib/libarm.a(cache.o)
 .ARM.attributes
                0x00000f55       0x2d arch/arm/lib/libarm.a(process.o)
 .ARM.attributes
                0x00000f82       0x2d arch/arm/lib/libarm.a(cache-cp15.o)
 .ARM.attributes
                0x00000faf       0x2d arch/arm/lib/libarm.a(reset.o)
 .ARM.attributes
                0x00000fdc       0x2d arch/arm/lib/libarm.a(ddr_layout.o)
 .ARM.attributes
                0x00001009       0x2d arch/arm/lib/libarm.a(ddr_size.o)
 .ARM.attributes
                0x00001036       0x2d arch/arm/lib/libarm.a(cpu_info.o)
 .ARM.attributes
                0x00001063       0x1d arch/arm/lib/libarm.a(mmu.o)
 .ARM.attributes
                0x00001080       0x1d arch/arm/lib/libarm.a(cache_ops.o)
 .ARM.attributes
                0x0000109d       0x2d fs/fat/libfat.a(fat.o)
 .ARM.attributes
                0x000010ca       0x2d disk/libdisk.a(part.o)
 .ARM.attributes
                0x000010f7       0x2d disk/libdisk.a(part_dos.o)
 .ARM.attributes
                0x00001124       0x2d drivers/mtd/nand/libnand.a(nand_util.o)
 .ARM.attributes
                0x00001151       0x2d drivers/mtd/spi/libspi_flash.a(spi_ids.o)
 .ARM.attributes
                0x0000117e       0x2d drivers/usb/host/hiusb/libhiusb.a(hiusb-ohci.o)
 .ARM.attributes
                0x000011ab       0x2d arch/arm/cpu/hi3516a/libhi3516a.a(cpu.o)
 .ARM.attributes
                0x000011d8       0x2d /home/jun/hi3516dv100/3.software_source_code/osdrv/opensource/uboot/u-boot-2010.06/arch/arm/lib/eabi_compat.o
 .ARM.attributes
                0x00001205       0x1d /opt/hisi-linux/x86-arm/arm-hisiv300-linux/bin/../lib/gcc/arm-hisiv300-linux-uclibcgnueabi/4.8.3/libgcc.a(_udivsi3.o)
 .ARM.attributes
                0x00001222       0x1d /opt/hisi-linux/x86-arm/arm-hisiv300-linux/bin/../lib/gcc/arm-hisiv300-linux-uclibcgnueabi/4.8.3/libgcc.a(_divsi3.o)
 .ARM.attributes
                0x0000123f       0x1d /opt/hisi-linux/x86-arm/arm-hisiv300-linux/bin/../lib/gcc/arm-hisiv300-linux-uclibcgnueabi/4.8.3/libgcc.a(_lshrdi3.o)
 .ARM.attributes
                0x0000125c       0x1d /opt/hisi-linux/x86-arm/arm-hisiv300-linux/bin/../lib/gcc/arm-hisiv300-linux-uclibcgnueabi/4.8.3/libgcc.a(_ashrdi3.o)
 .ARM.attributes
                0x00001279       0x1d /opt/hisi-linux/x86-arm/arm-hisiv300-linux/bin/../lib/gcc/arm-hisiv300-linux-uclibcgnueabi/4.8.3/libgcc.a(_ashldi3.o)
 .ARM.attributes
                0x00001296       0x1d /opt/hisi-linux/x86-arm/arm-hisiv300-linux/bin/../lib/gcc/arm-hisiv300-linux-uclibcgnueabi/4.8.3/libgcc.a(_dvmd_lnx.o)

.comment        0x00000000       0x32
 .comment       0x00000000       0x32 arch/arm/cpu/hi3516a/libhi3516a.a(lowlevel_init_v300.o)
                                 0x33 (松开之前的大小)
 .comment       0x00000000       0x33 arch/arm/cpu/hi3516a/libhi3516a.a(lowlevel_init_svb.o)
 .comment       0x00000000       0x33 arch/arm/cpu/hi3516a/libhi3516a.a(chip.o)
 .comment       0x00000000       0x33 arch/arm/cpu/hi3516a/libhi3516a.a(ddrphy_training.o)
 .comment       0x00000000       0x33 arch/arm/cpu/hi3516a/libhi3516a.a(ddr_dataeye_training.o)
 .comment       0x00000000       0x33 arch/arm/lib/libarm.a(board.o)
 .comment       0x00000000       0x33 arch/arm/lib/libarm.a(interrupts.o)
 .comment       0x00000000       0x33 net/libnet.a(eth.o)
 .comment       0x00000000       0x33 net/libnet.a(net.o)
 .comment       0x00000000       0x33 net/libnet.a(rarp.o)
 .comment       0x00000000       0x33 net/libnet.a(tftp.o)
 .comment       0x00000000       0x33 net/libnet.a(bootp.o)
 .comment       0x00000000       0x33 drivers/mtd/nand/libnand.a(nand.o)
 .comment       0x00000000       0x33 drivers/mtd/nand/libnand.a(nand_base.o)
 .comment       0x00000000       0x33 drivers/mtd/nand/libnand.a(nand_bbt.o)
 .comment       0x00000000       0x33 drivers/mtd/nand/libnand.a(nand_ecc.o)
 .comment       0x00000000       0x33 drivers/mtd/nand/libnand.a(nand_ids.o)
 .comment       0x00000000       0x33 drivers/mtd/nand/libnand.a(hinfc_common.o)
 .comment       0x00000000       0x33 drivers/mtd/nand/hinfc610/libhinfcv610.a(hinfc610.o)
 .comment       0x00000000       0x33 drivers/mtd/nand/hinfc610/libhinfcv610.a(hinfc610_gen.o)
 .comment       0x00000000       0x33 drivers/mtd/nand/hinfc610/libhinfcv610.a(hinfc610_spl_ids.o)
 .comment       0x00000000       0x33 drivers/mtd/nand/hinfc610/libhinfcv610.a(hinfc610_read_retry_hynix_bg_cdie.o)
 .comment       0x00000000       0x33 drivers/mtd/nand/hinfc610/libhinfcv610.a(hinfc610_read_retry_hynix_bg_bdie.o)
 .comment       0x00000000       0x33 drivers/mtd/nand/hinfc610/libhinfcv610.a(hinfc610_read_retry_hynix_cg_adie.o)
 .comment       0x00000000       0x33 drivers/mtd/nand/hinfc610/libhinfcv610.a(hinfc610_read_retry_micron.o)
 .comment       0x00000000       0x33 drivers/mtd/nand/hinfc610/libhinfcv610.a(hinfc610_read_retry_samsung.o)
 .comment       0x00000000       0x33 drivers/mtd/nand/hinfc610/libhinfcv610.a(hinfc610_read_retry_toshiba.o)
 .comment       0x00000000       0x33 drivers/mtd/nand/hinfc610/libhinfcv610.a(hinfc620_gen.o)
 .comment       0x00000000       0x33 drivers/mtd/spi/libspi_flash.a(spi_compatible.o)
 .comment       0x00000000       0x33 drivers/mtd/spi/hisfc350/libhisfcv350.a(hisfc350.o)
 .comment       0x00000000       0x33 drivers/mtd/spi/hisfc350/libhisfcv350.a(hisfc350_spi_ids.o)
 .comment       0x00000000       0x33 drivers/net/higmacv300/libhigmacv300.a(higmac.o)
 .comment       0x00000000       0x33 drivers/net/higmacv300/libhigmacv300.a(mdio.o)
 .comment       0x00000000       0x33 drivers/net/higmacv300/libhigmacv300.a(ctrl.o)
 .comment       0x00000000       0x33 drivers/serial/libserial.a(serial_pl01x.o)
 .comment       0x00000000       0x33 common/libcommon.a(cmd_boot.o)
 .comment       0x00000000       0x33 common/libcommon.a(cmd_bootm.o)
 .comment       0x00000000       0x33 common/libcommon.a(cmd_ddr_training_v300.o)
 .comment       0x00000000       0x33 common/libcommon.a(cmd_fat.o)
 .comment       0x00000000       0x33 common/libcommon.a(cmd_getinfo.o)
 .comment       0x00000000       0x33 common/libcommon.a(cmd_help.o)
 .comment       0x00000000       0x33 common/libcommon.a(cmd_load.o)
 .comment       0x00000000       0x33 common/libcommon.a(cmd_mem.o)
 .comment       0x00000000       0x33 common/libcommon.a(cmd_mii.o)
 .comment       0x00000000       0x33 common/libcommon.a(cmd_nand.o)
 .comment       0x00000000       0x33 common/libcommon.a(cmd_net.o)
 .comment       0x00000000       0x33 common/libcommon.a(cmd_nvedit.o)
 .comment       0x00000000       0x33 common/libcommon.a(cmd_sf.o)
 .comment       0x00000000       0x33 common/libcommon.a(cmd_usb.o)
 .comment       0x00000000       0x33 common/libcommon.a(cmd_version.o)
 .comment       0x00000000       0x33 common/libcommon.a(command.o)
 .comment       0x00000000       0x33 common/libcommon.a(console.o)
 .comment       0x00000000       0x33 common/libcommon.a(dlmalloc.o)
 .comment       0x00000000       0x33 common/libcommon.a(download_process.o)
 .comment       0x00000000       0x33 common/libcommon.a(env_common.o)
 .comment       0x00000000       0x33 common/libcommon.a(env_common_func.o)
 .comment       0x00000000       0x33 common/libcommon.a(env_nand.o)
 .comment       0x00000000       0x33 common/libcommon.a(env_sf.o)
 .comment       0x00000000       0x33 common/libcommon.a(exports.o)
 .comment       0x00000000       0x33 common/libcommon.a(hi3516a_ddr_training_printf.o)
 .comment       0x00000000       0x33 common/libcommon.a(image.o)
 .comment       0x00000000       0x33 common/libcommon.a(main.o)
 .comment       0x00000000       0x33 common/libcommon.a(miiphyutil.o)
 .comment       0x00000000       0x33 common/libcommon.a(stdio.o)
 .comment       0x00000000       0x33 common/libcommon.a(usb.o)
 .comment       0x00000000       0x33 common/libcommon.a(usb_storage.o)
 .comment       0x00000000       0x33 common/libcommon.a(xyzModem.o)
 .comment       0x00000000       0x33 product/libproduct.a(sample.o)
 .comment       0x00000000       0x33 board/hi3516a/libhi3516a.a(board.o)
 .comment       0x00000000       0x33 lib/libgeneric.a(crc16.o)
 .comment       0x00000000       0x33 lib/libgeneric.a(crc32.o)
 .comment       0x00000000       0x33 lib/libgeneric.a(ctype.o)
 .comment       0x00000000       0x33 lib/libgeneric.a(display_options.o)
 .comment       0x00000000       0x33 lib/libgeneric.a(div64.o)
 .comment       0x00000000       0x33 lib/libgeneric.a(gunzip.o)
 .comment       0x00000000       0x33 lib/libgeneric.a(net_utils.o)
 .comment       0x00000000       0x33 lib/libgeneric.a(string.o)
 .comment       0x00000000       0x33 lib/libgeneric.a(time.o)
 .comment       0x00000000       0x33 lib/libgeneric.a(vsprintf.o)
 .comment       0x00000000       0x33 lib/libgeneric.a(match_table.o)
 .comment       0x00000000       0x33 lib/libgeneric.a(zlib.o)
 .comment       0x00000000       0x33 arch/arm/cpu/hi3516a/hi3516a/libhi3516a.a(timer.o)
 .comment       0x00000000       0x33 arch/arm/lib/libarm.a(bootm.o)
 .comment       0x00000000       0x33 arch/arm/lib/libarm.a(cache.o)
 .comment       0x00000000       0x33 arch/arm/lib/libarm.a(process.o)
 .comment       0x00000000       0x33 arch/arm/lib/libarm.a(cache-cp15.o)
 .comment       0x00000000       0x33 arch/arm/lib/libarm.a(reset.o)
 .comment       0x00000000       0x33 arch/arm/lib/libarm.a(ddr_layout.o)
 .comment       0x00000000       0x33 arch/arm/lib/libarm.a(ddr_size.o)
 .comment       0x00000000       0x33 arch/arm/lib/libarm.a(cpu_info.o)
 .comment       0x00000000       0x33 fs/fat/libfat.a(fat.o)
 .comment       0x00000000       0x33 disk/libdisk.a(part.o)
 .comment       0x00000000       0x33 disk/libdisk.a(part_dos.o)
 .comment       0x00000000       0x33 drivers/mtd/nand/libnand.a(nand_util.o)
 .comment       0x00000000       0x33 drivers/mtd/spi/libspi_flash.a(spi_ids.o)
 .comment       0x00000000       0x33 drivers/usb/host/hiusb/libhiusb.a(hiusb-ohci.o)
 .comment       0x00000000       0x33 arch/arm/cpu/hi3516a/libhi3516a.a(cpu.o)
 .comment       0x00000000       0x33 /home/jun/hi3516dv100/3.software_source_code/osdrv/opensource/uboot/u-boot-2010.06/arch/arm/lib/eabi_compat.o

.note.GNU-stack
                0x00000000        0x0
 .note.GNU-stack
                0x00000000        0x0 arch/arm/cpu/hi3516a/libhi3516a.a(lowlevel_init_v300.o)
 .note.GNU-stack
                0x00000000        0x0 arch/arm/cpu/hi3516a/libhi3516a.a(lowlevel_init_svb.o)
 .note.GNU-stack
                0x00000000        0x0 arch/arm/cpu/hi3516a/libhi3516a.a(chip.o)
 .note.GNU-stack
                0x00000000        0x0 arch/arm/cpu/hi3516a/libhi3516a.a(ddrphy_training.o)
 .note.GNU-stack
                0x00000000        0x0 arch/arm/cpu/hi3516a/libhi3516a.a(ddr_dataeye_training.o)
 .note.GNU-stack
                0x00000000        0x0 arch/arm/lib/libarm.a(board.o)
 .note.GNU-stack
                0x00000000        0x0 arch/arm/lib/libarm.a(interrupts.o)
 .note.GNU-stack
                0x00000000        0x0 net/libnet.a(eth.o)
 .note.GNU-stack
                0x00000000        0x0 net/libnet.a(net.o)
 .note.GNU-stack
                0x00000000        0x0 net/libnet.a(rarp.o)
 .note.GNU-stack
                0x00000000        0x0 net/libnet.a(tftp.o)
 .note.GNU-stack
                0x00000000        0x0 net/libnet.a(bootp.o)
 .note.GNU-stack
                0x00000000        0x0 drivers/mtd/nand/libnand.a(nand.o)
 .note.GNU-stack
                0x00000000        0x0 drivers/mtd/nand/libnand.a(nand_base.o)
 .note.GNU-stack
                0x00000000        0x0 drivers/mtd/nand/libnand.a(nand_bbt.o)
 .note.GNU-stack
                0x00000000        0x0 drivers/mtd/nand/libnand.a(nand_ecc.o)
 .note.GNU-stack
                0x00000000        0x0 drivers/mtd/nand/libnand.a(nand_ids.o)
 .note.GNU-stack
                0x00000000        0x0 drivers/mtd/nand/libnand.a(hinfc_common.o)
 .note.GNU-stack
                0x00000000        0x0 drivers/mtd/nand/hinfc610/libhinfcv610.a(hinfc610.o)
 .note.GNU-stack
                0x00000000        0x0 drivers/mtd/nand/hinfc610/libhinfcv610.a(hinfc610_gen.o)
 .note.GNU-stack
                0x00000000        0x0 drivers/mtd/nand/hinfc610/libhinfcv610.a(hinfc610_spl_ids.o)
 .note.GNU-stack
                0x00000000        0x0 drivers/mtd/nand/hinfc610/libhinfcv610.a(hinfc610_read_retry_hynix_bg_cdie.o)
 .note.GNU-stack
                0x00000000        0x0 drivers/mtd/nand/hinfc610/libhinfcv610.a(hinfc610_read_retry_hynix_bg_bdie.o)
 .note.GNU-stack
                0x00000000        0x0 drivers/mtd/nand/hinfc610/libhinfcv610.a(hinfc610_read_retry_hynix_cg_adie.o)
 .note.GNU-stack
                0x00000000        0x0 drivers/mtd/nand/hinfc610/libhinfcv610.a(hinfc610_read_retry_micron.o)
 .note.GNU-stack
                0x00000000        0x0 drivers/mtd/nand/hinfc610/libhinfcv610.a(hinfc610_read_retry_samsung.o)
 .note.GNU-stack
                0x00000000        0x0 drivers/mtd/nand/hinfc610/libhinfcv610.a(hinfc610_read_retry_toshiba.o)
 .note.GNU-stack
                0x00000000        0x0 drivers/mtd/nand/hinfc610/libhinfcv610.a(hinfc620_gen.o)
 .note.GNU-stack
                0x00000000        0x0 drivers/mtd/spi/libspi_flash.a(spi_compatible.o)
 .note.GNU-stack
                0x00000000        0x0 drivers/mtd/spi/hisfc350/libhisfcv350.a(hisfc350.o)
 .note.GNU-stack
                0x00000000        0x0 drivers/mtd/spi/hisfc350/libhisfcv350.a(hisfc350_spi_ids.o)
 .note.GNU-stack
                0x00000000        0x0 drivers/net/higmacv300/libhigmacv300.a(higmac.o)
 .note.GNU-stack
                0x00000000        0x0 drivers/net/higmacv300/libhigmacv300.a(mdio.o)
 .note.GNU-stack
                0x00000000        0x0 drivers/net/higmacv300/libhigmacv300.a(ctrl.o)
 .note.GNU-stack
                0x00000000        0x0 drivers/serial/libserial.a(serial_pl01x.o)
 .note.GNU-stack
                0x00000000        0x0 common/libcommon.a(cmd_boot.o)
 .note.GNU-stack
                0x00000000        0x0 common/libcommon.a(cmd_bootm.o)
 .note.GNU-stack
                0x00000000        0x0 common/libcommon.a(cmd_ddr_training_v300.o)
 .note.GNU-stack
                0x00000000        0x0 common/libcommon.a(cmd_fat.o)
 .note.GNU-stack
                0x00000000        0x0 common/libcommon.a(cmd_getinfo.o)
 .note.GNU-stack
                0x00000000        0x0 common/libcommon.a(cmd_help.o)
 .note.GNU-stack
                0x00000000        0x0 common/libcommon.a(cmd_load.o)
 .note.GNU-stack
                0x00000000        0x0 common/libcommon.a(cmd_mem.o)
 .note.GNU-stack
                0x00000000        0x0 common/libcommon.a(cmd_mii.o)
 .note.GNU-stack
                0x00000000        0x0 common/libcommon.a(cmd_nand.o)
 .note.GNU-stack
                0x00000000        0x0 common/libcommon.a(cmd_net.o)
 .note.GNU-stack
                0x00000000        0x0 common/libcommon.a(cmd_nvedit.o)
 .note.GNU-stack
                0x00000000        0x0 common/libcommon.a(cmd_sf.o)
 .note.GNU-stack
                0x00000000        0x0 common/libcommon.a(cmd_usb.o)
 .note.GNU-stack
                0x00000000        0x0 common/libcommon.a(cmd_version.o)
 .note.GNU-stack
                0x00000000        0x0 common/libcommon.a(command.o)
 .note.GNU-stack
                0x00000000        0x0 common/libcommon.a(console.o)
 .note.GNU-stack
                0x00000000        0x0 common/libcommon.a(dlmalloc.o)
 .note.GNU-stack
                0x00000000        0x0 common/libcommon.a(download_process.o)
 .note.GNU-stack
                0x00000000        0x0 common/libcommon.a(env_common.o)
 .note.GNU-stack
                0x00000000        0x0 common/libcommon.a(env_common_func.o)
 .note.GNU-stack
                0x00000000        0x0 common/libcommon.a(env_nand.o)
 .note.GNU-stack
                0x00000000        0x0 common/libcommon.a(env_sf.o)
 .note.GNU-stack
                0x00000000        0x0 common/libcommon.a(exports.o)
 .note.GNU-stack
                0x00000000        0x0 common/libcommon.a(hi3516a_ddr_training_printf.o)
 .note.GNU-stack
                0x00000000        0x0 common/libcommon.a(image.o)
 .note.GNU-stack
                0x00000000        0x0 common/libcommon.a(main.o)
 .note.GNU-stack
                0x00000000        0x0 common/libcommon.a(miiphyutil.o)
 .note.GNU-stack
                0x00000000        0x0 common/libcommon.a(stdio.o)
 .note.GNU-stack
                0x00000000        0x0 common/libcommon.a(usb.o)
 .note.GNU-stack
                0x00000000        0x0 common/libcommon.a(usb_storage.o)
 .note.GNU-stack
                0x00000000        0x0 common/libcommon.a(xyzModem.o)
 .note.GNU-stack
                0x00000000        0x0 product/libproduct.a(sample.o)
 .note.GNU-stack
                0x00000000        0x0 board/hi3516a/libhi3516a.a(board.o)
 .note.GNU-stack
                0x00000000        0x0 lib/libgeneric.a(crc16.o)
 .note.GNU-stack
                0x00000000        0x0 lib/libgeneric.a(crc32.o)
 .note.GNU-stack
                0x00000000        0x0 lib/libgeneric.a(ctype.o)
 .note.GNU-stack
                0x00000000        0x0 lib/libgeneric.a(display_options.o)
 .note.GNU-stack
                0x00000000        0x0 lib/libgeneric.a(div64.o)
 .note.GNU-stack
                0x00000000        0x0 lib/libgeneric.a(gunzip.o)
 .note.GNU-stack
                0x00000000        0x0 lib/libgeneric.a(net_utils.o)
 .note.GNU-stack
                0x00000000        0x0 lib/libgeneric.a(string.o)
 .note.GNU-stack
                0x00000000        0x0 lib/libgeneric.a(time.o)
 .note.GNU-stack
                0x00000000        0x0 lib/libgeneric.a(vsprintf.o)
 .note.GNU-stack
                0x00000000        0x0 lib/libgeneric.a(match_table.o)
 .note.GNU-stack
                0x00000000        0x0 lib/libgeneric.a(zlib.o)
 .note.GNU-stack
                0x00000000        0x0 arch/arm/cpu/hi3516a/hi3516a/libhi3516a.a(timer.o)
 .note.GNU-stack
                0x00000000        0x0 arch/arm/lib/libarm.a(bootm.o)
 .note.GNU-stack
                0x00000000        0x0 arch/arm/lib/libarm.a(cache.o)
 .note.GNU-stack
                0x00000000        0x0 arch/arm/lib/libarm.a(process.o)
 .note.GNU-stack
                0x00000000        0x0 arch/arm/lib/libarm.a(cache-cp15.o)
 .note.GNU-stack
                0x00000000        0x0 arch/arm/lib/libarm.a(reset.o)
 .note.GNU-stack
                0x00000000        0x0 arch/arm/lib/libarm.a(ddr_layout.o)
 .note.GNU-stack
                0x00000000        0x0 arch/arm/lib/libarm.a(ddr_size.o)
 .note.GNU-stack
                0x00000000        0x0 arch/arm/lib/libarm.a(cpu_info.o)
 .note.GNU-stack
                0x00000000        0x0 fs/fat/libfat.a(fat.o)
 .note.GNU-stack
                0x00000000        0x0 disk/libdisk.a(part.o)
 .note.GNU-stack
                0x00000000        0x0 disk/libdisk.a(part_dos.o)
 .note.GNU-stack
                0x00000000        0x0 drivers/mtd/nand/libnand.a(nand_util.o)
 .note.GNU-stack
                0x00000000        0x0 drivers/mtd/spi/libspi_flash.a(spi_ids.o)
 .note.GNU-stack
                0x00000000        0x0 drivers/usb/host/hiusb/libhiusb.a(hiusb-ohci.o)
 .note.GNU-stack
                0x00000000        0x0 arch/arm/cpu/hi3516a/libhi3516a.a(cpu.o)
 .note.GNU-stack
                0x00000000        0x0 /home/jun/hi3516dv100/3.software_source_code/osdrv/opensource/uboot/u-boot-2010.06/arch/arm/lib/eabi_compat.o
 .note.GNU-stack
                0x00000000        0x0 /opt/hisi-linux/x86-arm/arm-hisiv300-linux/bin/../lib/gcc/arm-hisiv300-linux-uclibcgnueabi/4.8.3/libgcc.a(_udivsi3.o)
 .note.GNU-stack
                0x00000000        0x0 /opt/hisi-linux/x86-arm/arm-hisiv300-linux/bin/../lib/gcc/arm-hisiv300-linux-uclibcgnueabi/4.8.3/libgcc.a(_divsi3.o)
 .note.GNU-stack
                0x00000000        0x0 /opt/hisi-linux/x86-arm/arm-hisiv300-linux/bin/../lib/gcc/arm-hisiv300-linux-uclibcgnueabi/4.8.3/libgcc.a(_lshrdi3.o)
 .note.GNU-stack
                0x00000000        0x0 /opt/hisi-linux/x86-arm/arm-hisiv300-linux/bin/../lib/gcc/arm-hisiv300-linux-uclibcgnueabi/4.8.3/libgcc.a(_ashrdi3.o)
 .note.GNU-stack
                0x00000000        0x0 /opt/hisi-linux/x86-arm/arm-hisiv300-linux/bin/../lib/gcc/arm-hisiv300-linux-uclibcgnueabi/4.8.3/libgcc.a(_ashldi3.o)
 .note.GNU-stack
                0x00000000        0x0 /opt/hisi-linux/x86-arm/arm-hisiv300-linux/bin/../lib/gcc/arm-hisiv300-linux-uclibcgnueabi/4.8.3/libgcc.a(_dvmd_lnx.o)

.debug_line     0x00000000    0x1240c
 .debug_line    0x00000000      0x18d arch/arm/cpu/hi3516a/start.o
 .debug_line    0x0000018d       0x75 arch/arm/cpu/hi3516a/libhi3516a.a(lowlevel_init_v300.o)
 .debug_line    0x00000202      0x2d8 arch/arm/cpu/hi3516a/libhi3516a.a(lowlevel_init_svb.o)
 .debug_line    0x000004da      0x159 arch/arm/cpu/hi3516a/libhi3516a.a(ddrphy_training_func.o)
 .debug_line    0x00000633       0x58 arch/arm/cpu/hi3516a/libhi3516a.a(ddrphy_training_print.o)
 .debug_line    0x0000068b       0x68 arch/arm/cpu/hi3516a/libhi3516a.a(uart.o)
 .debug_line    0x000006f3       0x3f arch/arm/cpu/hi3516a/libhi3516a.a(chip.o)
 .debug_line    0x00000732      0x1e0 arch/arm/cpu/hi3516a/libhi3516a.a(ddrphy_training.o)
 .debug_line    0x00000912      0x341 arch/arm/cpu/hi3516a/libhi3516a.a(ddr_dataeye_training.o)
 .debug_line    0x00000c53      0x2ec arch/arm/lib/libarm.a(board.o)
 .debug_line    0x00000f3f      0x1c4 arch/arm/lib/libarm.a(interrupts.o)
 .debug_line    0x00001103      0x1eb net/libnet.a(eth.o)
 .debug_line    0x000012ee      0x5dd net/libnet.a(net.o)
 .debug_line    0x000018cb      0x1de net/libnet.a(rarp.o)
 .debug_line    0x00001aa9      0x3b6 net/libnet.a(tftp.o)
 .debug_line    0x00001e5f      0x3a7 net/libnet.a(bootp.o)
 .debug_line    0x00002206      0x252 drivers/mtd/nand/libnand.a(nand.o)
 .debug_line    0x00002458      0xdcb drivers/mtd/nand/libnand.a(nand_base.o)
 .debug_line    0x00003223      0x665 drivers/mtd/nand/libnand.a(nand_bbt.o)
 .debug_line    0x00003888      0x22d drivers/mtd/nand/libnand.a(nand_ecc.o)
 .debug_line    0x00003ab5       0x9a drivers/mtd/nand/libnand.a(nand_ids.o)
 .debug_line    0x00003b4f      0x269 drivers/mtd/nand/libnand.a(hinfc_common.o)
 .debug_line    0x00003db8      0x609 drivers/mtd/nand/hinfc610/libhinfcv610.a(hinfc610.o)
 .debug_line    0x000043c1       0xc9 drivers/mtd/nand/hinfc610/libhinfcv610.a(hinfc610_gen.o)
 .debug_line    0x0000448a      0x2d6 drivers/mtd/nand/hinfc610/libhinfcv610.a(hinfc610_spl_ids.o)
 .debug_line    0x00004760      0x436 drivers/mtd/nand/hinfc610/libhinfcv610.a(hinfc610_read_retry_hynix_bg_cdie.o)
 .debug_line    0x00004b96      0x314 drivers/mtd/nand/hinfc610/libhinfcv610.a(hinfc610_read_retry_hynix_bg_bdie.o)
 .debug_line    0x00004eaa      0x43b drivers/mtd/nand/hinfc610/libhinfcv610.a(hinfc610_read_retry_hynix_cg_adie.o)
 .debug_line    0x000052e5      0x26f drivers/mtd/nand/hinfc610/libhinfcv610.a(hinfc610_read_retry_micron.o)
 .debug_line    0x00005554      0x2db drivers/mtd/nand/hinfc610/libhinfcv610.a(hinfc610_read_retry_samsung.o)
 .debug_line    0x0000582f      0x2b9 drivers/mtd/nand/hinfc610/libhinfcv610.a(hinfc610_read_retry_toshiba.o)
 .debug_line    0x00005ae8       0xc9 drivers/mtd/nand/hinfc610/libhinfcv610.a(hinfc620_gen.o)
 .debug_line    0x00005bb1      0x242 drivers/mtd/spi/libspi_flash.a(spi_compatible.o)
 .debug_line    0x00005df3      0x5a4 drivers/mtd/spi/hisfc350/libhisfcv350.a(hisfc350.o)
 .debug_line    0x00006397      0x501 drivers/mtd/spi/hisfc350/libhisfcv350.a(hisfc350_spi_ids.o)
 .debug_line    0x00006898      0x494 drivers/net/higmacv300/libhigmacv300.a(higmac.o)
 .debug_line    0x00006d2c       0xe6 drivers/net/higmacv300/libhigmacv300.a(mdio.o)
 .debug_line    0x00006e12      0x17b drivers/net/higmacv300/libhigmacv300.a(ctrl.o)
 .debug_line    0x00006f8d       0x90 drivers/serial/libserial.a(serial_pl01x.o)
 .debug_line    0x0000701d      0x12b common/libcommon.a(cmd_boot.o)
 .debug_line    0x00007148      0x498 common/libcommon.a(cmd_bootm.o)
 .debug_line    0x000075e0      0x27f common/libcommon.a(cmd_ddr_training_v300.o)
 .debug_line    0x0000785f      0x213 common/libcommon.a(cmd_fat.o)
 .debug_line    0x00007a72      0x242 common/libcommon.a(cmd_getinfo.o)
 .debug_line    0x00007cb4       0xa8 common/libcommon.a(cmd_help.o)
 .debug_line    0x00007d5c      0x3b5 common/libcommon.a(cmd_load.o)
 .debug_line    0x00008111      0x3e1 common/libcommon.a(cmd_mem.o)
 .debug_line    0x000084f2      0x310 common/libcommon.a(cmd_mii.o)
 .debug_line    0x00008802      0x59d common/libcommon.a(cmd_nand.o)
 .debug_line    0x00008d9f      0x236 common/libcommon.a(cmd_net.o)
 .debug_line    0x00008fd5      0x41d common/libcommon.a(cmd_nvedit.o)
 .debug_line    0x000093f2      0x36d common/libcommon.a(cmd_sf.o)
 .debug_line    0x0000975f      0x4f8 common/libcommon.a(cmd_usb.o)
 .debug_line    0x00009c57       0xb3 common/libcommon.a(cmd_version.o)
 .debug_line    0x00009d0a      0x346 common/libcommon.a(command.o)
 .debug_line    0x0000a050      0x34e common/libcommon.a(console.o)
 .debug_line    0x0000a39e      0x4f3 common/libcommon.a(dlmalloc.o)
 .debug_line    0x0000a891      0x20d common/libcommon.a(download_process.o)
 .debug_line    0x0000aa9e      0x2af common/libcommon.a(env_common.o)
 .debug_line    0x0000ad4d      0x1ca common/libcommon.a(env_common_func.o)
 .debug_line    0x0000af17      0x320 common/libcommon.a(env_nand.o)
 .debug_line    0x0000b237      0x28a common/libcommon.a(env_sf.o)
 .debug_line    0x0000b4c1      0x1d9 common/libcommon.a(exports.o)
 .debug_line    0x0000b69a      0x15a common/libcommon.a(hi3516a_ddr_training_printf.o)
 .debug_line    0x0000b7f4      0x41a common/libcommon.a(image.o)
 .debug_line    0x0000bc0e      0x51d common/libcommon.a(main.o)
 .debug_line    0x0000c12b      0x2d4 common/libcommon.a(miiphyutil.o)
 .debug_line    0x0000c3ff      0x233 common/libcommon.a(stdio.o)
 .debug_line    0x0000c632      0x609 common/libcommon.a(usb.o)
 .debug_line    0x0000cc3b      0x6f9 common/libcommon.a(usb_storage.o)
 .debug_line    0x0000d334      0x3ca common/libcommon.a(xyzModem.o)
 .debug_line    0x0000d6fe       0x3b product/libproduct.a(sample.o)
 .debug_line    0x0000d739      0x154 board/hi3516a/libhi3516a.a(board.o)
 .debug_line    0x0000d88d      0x11c lib/libgeneric.a(crc16.o)
 .debug_line    0x0000d9a9      0x202 lib/libgeneric.a(crc32.o)
 .debug_line    0x0000dbab       0x28 lib/libgeneric.a(ctype.o)
 .debug_line    0x0000dbd3      0x201 lib/libgeneric.a(display_options.o)
 .debug_line    0x0000ddd4      0x12f lib/libgeneric.a(div64.o)
 .debug_line    0x0000df03      0x252 lib/libgeneric.a(gunzip.o)
 .debug_line    0x0000e155      0x214 lib/libgeneric.a(net_utils.o)
 .debug_line    0x0000e369      0x33e lib/libgeneric.a(string.o)
 .debug_line    0x0000e6a7      0x11d lib/libgeneric.a(time.o)
 .debug_line    0x0000e7c4      0x61b lib/libgeneric.a(vsprintf.o)
 .debug_line    0x0000eddf      0x1df lib/libgeneric.a(match_table.o)
 .debug_line    0x0000efbe      0xaac lib/libgeneric.a(zlib.o)
 .debug_line    0x0000fa6a      0x117 arch/arm/cpu/hi3516a/hi3516a/libhi3516a.a(timer.o)
 .debug_line    0x0000fb81      0x23d arch/arm/lib/libarm.a(bootm.o)
 .debug_line    0x0000fdbe       0x37 arch/arm/lib/libarm.a(cache.o)
 .debug_line    0x0000fdf5       0xb8 arch/arm/lib/libarm.a(process.o)
 .debug_line    0x0000fead      0x1b7 arch/arm/lib/libarm.a(cache-cp15.o)
 .debug_line    0x00010064      0x11d arch/arm/lib/libarm.a(reset.o)
 .debug_line    0x00010181      0x202 arch/arm/lib/libarm.a(ddr_layout.o)
 .debug_line    0x00010383      0x15e arch/arm/lib/libarm.a(ddr_size.o)
 .debug_line    0x000104e1       0xd8 arch/arm/lib/libarm.a(cpu_info.o)
 .debug_line    0x000105b9       0x7f arch/arm/lib/libarm.a(mmu.o)
 .debug_line    0x00010638       0xa8 arch/arm/lib/libarm.a(cache_ops.o)
 .debug_line    0x000106e0      0x520 fs/fat/libfat.a(fat.o)
 .debug_line    0x00010c00      0x222 disk/libdisk.a(part.o)
 .debug_line    0x00010e22      0x25e disk/libdisk.a(part_dos.o)
 .debug_line    0x00011080      0x5da drivers/mtd/nand/libnand.a(nand_util.o)
 .debug_line    0x0001165a      0x1e5 drivers/mtd/spi/libspi_flash.a(spi_ids.o)
 .debug_line    0x0001183f      0x701 drivers/usb/host/hiusb/libhiusb.a(hiusb-ohci.o)
 .debug_line    0x00011f40      0x125 arch/arm/cpu/hi3516a/libhi3516a.a(cpu.o)
 .debug_line    0x00012065       0xa9 /home/jun/hi3516dv100/3.software_source_code/osdrv/opensource/uboot/u-boot-2010.06/arch/arm/lib/eabi_compat.o
 .debug_line    0x0001210e       0x91 /opt/hisi-linux/x86-arm/arm-hisiv300-linux/bin/../lib/gcc/arm-hisiv300-linux-uclibcgnueabi/4.8.3/libgcc.a(_udivsi3.o)
 .debug_line    0x0001219f       0x9d /opt/hisi-linux/x86-arm/arm-hisiv300-linux/bin/../lib/gcc/arm-hisiv300-linux-uclibcgnueabi/4.8.3/libgcc.a(_divsi3.o)
 .debug_line    0x0001223c       0x74 /opt/hisi-linux/x86-arm/arm-hisiv300-linux/bin/../lib/gcc/arm-hisiv300-linux-uclibcgnueabi/4.8.3/libgcc.a(_lshrdi3.o)
 .debug_line    0x000122b0       0x74 /opt/hisi-linux/x86-arm/arm-hisiv300-linux/bin/../lib/gcc/arm-hisiv300-linux-uclibcgnueabi/4.8.3/libgcc.a(_ashrdi3.o)
 .debug_line    0x00012324       0x74 /opt/hisi-linux/x86-arm/arm-hisiv300-linux/bin/../lib/gcc/arm-hisiv300-linux-uclibcgnueabi/4.8.3/libgcc.a(_ashldi3.o)
 .debug_line    0x00012398       0x74 /opt/hisi-linux/x86-arm/arm-hisiv300-linux/bin/../lib/gcc/arm-hisiv300-linux-uclibcgnueabi/4.8.3/libgcc.a(_dvmd_lnx.o)

.debug_info     0x00000000    0x51912
 .debug_info    0x00000000       0x98 arch/arm/cpu/hi3516a/start.o
 .debug_info    0x00000098      0x2c8 arch/arm/cpu/hi3516a/libhi3516a.a(lowlevel_init_v300.o)
 .debug_info    0x00000360     0x119c arch/arm/cpu/hi3516a/libhi3516a.a(lowlevel_init_svb.o)
 .debug_info    0x000014fc       0xa7 arch/arm/cpu/hi3516a/libhi3516a.a(ddrphy_training_func.o)
 .debug_info    0x000015a3       0xa8 arch/arm/cpu/hi3516a/libhi3516a.a(ddrphy_training_print.o)
 .debug_info    0x0000164b       0x97 arch/arm/cpu/hi3516a/libhi3516a.a(uart.o)
 .debug_info    0x000016e2       0x80 arch/arm/cpu/hi3516a/libhi3516a.a(chip.o)
 .debug_info    0x00001762      0x38b arch/arm/cpu/hi3516a/libhi3516a.a(ddrphy_training.o)
 .debug_info    0x00001aed      0xe8c arch/arm/cpu/hi3516a/libhi3516a.a(ddr_dataeye_training.o)
 .debug_info    0x00002979      0x8b1 arch/arm/lib/libarm.a(board.o)
 .debug_info    0x0000322a      0x4f1 arch/arm/lib/libarm.a(interrupts.o)
 .debug_info    0x0000371b      0x49b net/libnet.a(eth.o)
 .debug_info    0x00003bb6     0x218e net/libnet.a(net.o)
 .debug_info    0x00005d44      0x468 net/libnet.a(rarp.o)
 .debug_info    0x000061ac      0xda8 net/libnet.a(tftp.o)
 .debug_info    0x00006f54     0x1033 net/libnet.a(bootp.o)
 .debug_info    0x00007f87     0x1110 drivers/mtd/nand/libnand.a(nand.o)
 .debug_info    0x00009097     0x50c0 drivers/mtd/nand/libnand.a(nand_base.o)
 .debug_info    0x0000e157     0x25f5 drivers/mtd/nand/libnand.a(nand_bbt.o)
 .debug_info    0x0001074c      0x93a drivers/mtd/nand/libnand.a(nand_ecc.o)
 .debug_info    0x00011086      0x13c drivers/mtd/nand/libnand.a(nand_ids.o)
 .debug_info    0x000111c2     0x15b3 drivers/mtd/nand/libnand.a(hinfc_common.o)
 .debug_info    0x00012775     0x2823 drivers/mtd/nand/hinfc610/libhinfcv610.a(hinfc610.o)
 .debug_info    0x00014f98      0x2df drivers/mtd/nand/hinfc610/libhinfcv610.a(hinfc610_gen.o)
 .debug_info    0x00015277     0x144a drivers/mtd/nand/hinfc610/libhinfcv610.a(hinfc610_spl_ids.o)
 .debug_info    0x000166c1     0x185f drivers/mtd/nand/hinfc610/libhinfcv610.a(hinfc610_read_retry_hynix_bg_cdie.o)
 .debug_info    0x00017f20     0x14aa drivers/mtd/nand/hinfc610/libhinfcv610.a(hinfc610_read_retry_hynix_bg_bdie.o)
 .debug_info    0x000193ca     0x185f drivers/mtd/nand/hinfc610/libhinfcv610.a(hinfc610_read_retry_hynix_cg_adie.o)
 .debug_info    0x0001ac29     0x12e5 drivers/mtd/nand/hinfc610/libhinfcv610.a(hinfc610_read_retry_micron.o)
 .debug_info    0x0001bf0e     0x13c5 drivers/mtd/nand/hinfc610/libhinfcv610.a(hinfc610_read_retry_samsung.o)
 .debug_info    0x0001d2d3     0x146c drivers/mtd/nand/hinfc610/libhinfcv610.a(hinfc610_read_retry_toshiba.o)
 .debug_info    0x0001e73f      0x2c7 drivers/mtd/nand/hinfc610/libhinfcv610.a(hinfc620_gen.o)
 .debug_info    0x0001ea06      0x549 drivers/mtd/spi/libspi_flash.a(spi_compatible.o)
 .debug_info    0x0001ef4f     0x1f50 drivers/mtd/spi/hisfc350/libhisfcv350.a(hisfc350.o)
 .debug_info    0x00020e9f     0x17b5 drivers/mtd/spi/hisfc350/libhisfcv350.a(hisfc350_spi_ids.o)
 .debug_info    0x00022654     0x2393 drivers/net/higmacv300/libhigmacv300.a(higmac.o)
 .debug_info    0x000249e7      0x6d8 drivers/net/higmacv300/libhigmacv300.a(mdio.o)
 .debug_info    0x000250bf     0x1354 drivers/net/higmacv300/libhigmacv300.a(ctrl.o)
 .debug_info    0x00026413      0x2f4 drivers/serial/libserial.a(serial_pl01x.o)
 .debug_info    0x00026707      0x333 common/libcommon.a(cmd_boot.o)
 .debug_info    0x00026a3a     0x1c8d common/libcommon.a(cmd_bootm.o)
 .debug_info    0x000286c7      0xbe3 common/libcommon.a(cmd_ddr_training_v300.o)
 .debug_info    0x000292aa      0x9fa common/libcommon.a(cmd_fat.o)
 .debug_info    0x00029ca4      0x5b0 common/libcommon.a(cmd_getinfo.o)
 .debug_info    0x0002a254      0x21f common/libcommon.a(cmd_help.o)
 .debug_info    0x0002a473     0x1070 common/libcommon.a(cmd_load.o)
 .debug_info    0x0002b4e3     0x134b common/libcommon.a(cmd_mem.o)
 .debug_info    0x0002c82e      0xd04 common/libcommon.a(cmd_mii.o)
 .debug_info    0x0002d532     0x2af4 common/libcommon.a(cmd_nand.o)
 .debug_info    0x00030026      0xa38 common/libcommon.a(cmd_net.o)
 .debug_info    0x00030a5e      0xda4 common/libcommon.a(cmd_nvedit.o)
 .debug_info    0x00031802      0xfee common/libcommon.a(cmd_sf.o)
 .debug_info    0x000327f0     0x198e common/libcommon.a(cmd_usb.o)
 .debug_info    0x0003417e      0x1ed common/libcommon.a(cmd_version.o)
 .debug_info    0x0003436b      0xe66 common/libcommon.a(command.o)
 .debug_info    0x000351d1      0xe6f common/libcommon.a(console.o)
 .debug_info    0x00036040      0xe28 common/libcommon.a(dlmalloc.o)
 .debug_info    0x00036e68      0x3cb common/libcommon.a(download_process.o)
 .debug_info    0x00037233      0x719 common/libcommon.a(env_common.o)
 .debug_info    0x0003794c      0x249 common/libcommon.a(env_common_func.o)
 .debug_info    0x00037b95      0xe4d common/libcommon.a(env_nand.o)
 .debug_info    0x000389e2      0x7d4 common/libcommon.a(env_sf.o)
 .debug_info    0x000391b6      0x2e6 common/libcommon.a(exports.o)
 .debug_info    0x0003949c      0x792 common/libcommon.a(hi3516a_ddr_training_printf.o)
 .debug_info    0x00039c2e     0x17f2 common/libcommon.a(image.o)
 .debug_info    0x0003b420     0x19c8 common/libcommon.a(main.o)
 .debug_info    0x0003cde8      0xa9e common/libcommon.a(miiphyutil.o)
 .debug_info    0x0003d886      0x6bb common/libcommon.a(stdio.o)
 .debug_info    0x0003df41     0x25d5 common/libcommon.a(usb.o)
 .debug_info    0x00040516     0x21f4 common/libcommon.a(usb_storage.o)
 .debug_info    0x0004270a      0xb55 common/libcommon.a(xyzModem.o)
 .debug_info    0x0004325f       0xa2 product/libproduct.a(sample.o)
 .debug_info    0x00043301      0x2b1 board/hi3516a/libhi3516a.a(board.o)
 .debug_info    0x000435b2      0x10e lib/libgeneric.a(crc16.o)
 .debug_info    0x000436c0      0x2ae lib/libgeneric.a(crc32.o)
 .debug_info    0x0004396e       0x4d lib/libgeneric.a(ctype.o)
 .debug_info    0x000439bb      0x3d9 lib/libgeneric.a(display_options.o)
 .debug_info    0x00043d94      0x13f lib/libgeneric.a(div64.o)
 .debug_info    0x00043ed3      0x57c lib/libgeneric.a(gunzip.o)
 .debug_info    0x0004444f      0x16b lib/libgeneric.a(net_utils.o)
 .debug_info    0x000445ba      0x9b8 lib/libgeneric.a(string.o)
 .debug_info    0x00044f72       0xd4 lib/libgeneric.a(time.o)
 .debug_info    0x00045046      0xf50 lib/libgeneric.a(vsprintf.o)
 .debug_info    0x00045f96      0x44a lib/libgeneric.a(match_table.o)
 .debug_info    0x000463e0     0x13af lib/libgeneric.a(zlib.o)
 .debug_info    0x0004778f      0x3a3 arch/arm/cpu/hi3516a/hi3516a/libhi3516a.a(timer.o)
 .debug_info    0x00047b32      0xb45 arch/arm/lib/libarm.a(bootm.o)
 .debug_info    0x00048677       0xa6 arch/arm/lib/libarm.a(cache.o)
 .debug_info    0x0004871d      0x141 arch/arm/lib/libarm.a(process.o)
 .debug_info    0x0004885e      0x4cb arch/arm/lib/libarm.a(cache-cp15.o)
 .debug_info    0x00048d29      0x23e arch/arm/lib/libarm.a(reset.o)
 .debug_info    0x00048f67      0x44b arch/arm/lib/libarm.a(ddr_layout.o)
 .debug_info    0x000493b2      0x25d arch/arm/lib/libarm.a(ddr_size.o)
 .debug_info    0x0004960f      0x396 arch/arm/lib/libarm.a(cpu_info.o)
 .debug_info    0x000499a5       0x8e arch/arm/lib/libarm.a(mmu.o)
 .debug_info    0x00049a33       0x94 arch/arm/lib/libarm.a(cache_ops.o)
 .debug_info    0x00049ac7     0x1b87 fs/fat/libfat.a(fat.o)
 .debug_info    0x0004b64e      0x7e4 disk/libdisk.a(part.o)
 .debug_info    0x0004be32      0x8c7 disk/libdisk.a(part_dos.o)
 .debug_info    0x0004c6f9     0x1f07 drivers/mtd/nand/libnand.a(nand_util.o)
 .debug_info    0x0004e600      0x581 drivers/mtd/spi/libspi_flash.a(spi_ids.o)
 .debug_info    0x0004eb81     0x256e drivers/usb/host/hiusb/libhiusb.a(hiusb-ohci.o)
 .debug_info    0x000510ef      0x1b5 arch/arm/cpu/hi3516a/libhi3516a.a(cpu.o)
 .debug_info    0x000512a4       0xec /home/jun/hi3516dv100/3.software_source_code/osdrv/opensource/uboot/u-boot-2010.06/arch/arm/lib/eabi_compat.o
 .debug_info    0x00051390       0xeb /opt/hisi-linux/x86-arm/arm-hisiv300-linux/bin/../lib/gcc/arm-hisiv300-linux-uclibcgnueabi/4.8.3/libgcc.a(_udivsi3.o)
 .debug_info    0x0005147b       0xeb /opt/hisi-linux/x86-arm/arm-hisiv300-linux/bin/../lib/gcc/arm-hisiv300-linux-uclibcgnueabi/4.8.3/libgcc.a(_divsi3.o)
 .debug_info    0x00051566       0xeb /opt/hisi-linux/x86-arm/arm-hisiv300-linux/bin/../lib/gcc/arm-hisiv300-linux-uclibcgnueabi/4.8.3/libgcc.a(_lshrdi3.o)
 .debug_info    0x00051651       0xeb /opt/hisi-linux/x86-arm/arm-hisiv300-linux/bin/../lib/gcc/arm-hisiv300-linux-uclibcgnueabi/4.8.3/libgcc.a(_ashrdi3.o)
 .debug_info    0x0005173c       0xeb /opt/hisi-linux/x86-arm/arm-hisiv300-linux/bin/../lib/gcc/arm-hisiv300-linux-uclibcgnueabi/4.8.3/libgcc.a(_ashldi3.o)
 .debug_info    0x00051827       0xeb /opt/hisi-linux/x86-arm/arm-hisiv300-linux/bin/../lib/gcc/arm-hisiv300-linux-uclibcgnueabi/4.8.3/libgcc.a(_dvmd_lnx.o)

.debug_abbrev   0x00000000     0xf388
 .debug_abbrev  0x00000000       0x14 arch/arm/cpu/hi3516a/start.o
 .debug_abbrev  0x00000014      0x179 arch/arm/cpu/hi3516a/libhi3516a.a(lowlevel_init_v300.o)
 .debug_abbrev  0x0000018d      0x290 arch/arm/cpu/hi3516a/libhi3516a.a(lowlevel_init_svb.o)
 .debug_abbrev  0x0000041d       0x14 arch/arm/cpu/hi3516a/libhi3516a.a(ddrphy_training_func.o)
 .debug_abbrev  0x00000431       0x14 arch/arm/cpu/hi3516a/libhi3516a.a(ddrphy_training_print.o)
 .debug_abbrev  0x00000445       0x14 arch/arm/cpu/hi3516a/libhi3516a.a(uart.o)
 .debug_abbrev  0x00000459       0x73 arch/arm/cpu/hi3516a/libhi3516a.a(chip.o)
 .debug_abbrev  0x000004cc      0x167 arch/arm/cpu/hi3516a/libhi3516a.a(ddrphy_training.o)
 .debug_abbrev  0x00000633      0x331 arch/arm/cpu/hi3516a/libhi3516a.a(ddr_dataeye_training.o)
 .debug_abbrev  0x00000964      0x2a2 arch/arm/lib/libarm.a(board.o)
 .debug_abbrev  0x00000c06      0x17f arch/arm/lib/libarm.a(interrupts.o)
 .debug_abbrev  0x00000d85      0x1ff net/libnet.a(eth.o)
 .debug_abbrev  0x00000f84      0x53f net/libnet.a(net.o)
 .debug_abbrev  0x000014c3      0x1e7 net/libnet.a(rarp.o)
 .debug_abbrev  0x000016aa      0x398 net/libnet.a(tftp.o)
 .debug_abbrev  0x00001a42      0x34d net/libnet.a(bootp.o)
 .debug_abbrev  0x00001d8f      0x20d drivers/mtd/nand/libnand.a(nand.o)
 .debug_abbrev  0x00001f9c      0x627 drivers/mtd/nand/libnand.a(nand_base.o)
 .debug_abbrev  0x000025c3      0x482 drivers/mtd/nand/libnand.a(nand_bbt.o)
 .debug_abbrev  0x00002a45      0x1ca drivers/mtd/nand/libnand.a(nand_ecc.o)
 .debug_abbrev  0x00002c0f       0x7f drivers/mtd/nand/libnand.a(nand_ids.o)
 .debug_abbrev  0x00002c8e      0x1fc drivers/mtd/nand/libnand.a(hinfc_common.o)
 .debug_abbrev  0x00002e8a      0x4e9 drivers/mtd/nand/hinfc610/libhinfcv610.a(hinfc610.o)
 .debug_abbrev  0x00003373      0x11c drivers/mtd/nand/hinfc610/libhinfcv610.a(hinfc610_gen.o)
 .debug_abbrev  0x0000348f      0x2bc drivers/mtd/nand/hinfc610/libhinfcv610.a(hinfc610_spl_ids.o)
 .debug_abbrev  0x0000374b      0x2fc drivers/mtd/nand/hinfc610/libhinfcv610.a(hinfc610_read_retry_hynix_bg_cdie.o)
 .debug_abbrev  0x00003a47      0x285 drivers/mtd/nand/hinfc610/libhinfcv610.a(hinfc610_read_retry_hynix_bg_bdie.o)
 .debug_abbrev  0x00003ccc      0x2fc drivers/mtd/nand/hinfc610/libhinfcv610.a(hinfc610_read_retry_hynix_cg_adie.o)
 .debug_abbrev  0x00003fc8      0x239 drivers/mtd/nand/hinfc610/libhinfcv610.a(hinfc610_read_retry_micron.o)
 .debug_abbrev  0x00004201      0x216 drivers/mtd/nand/hinfc610/libhinfcv610.a(hinfc610_read_retry_samsung.o)
 .debug_abbrev  0x00004417      0x288 drivers/mtd/nand/hinfc610/libhinfcv610.a(hinfc610_read_retry_toshiba.o)
 .debug_abbrev  0x0000469f      0x11c drivers/mtd/nand/hinfc610/libhinfcv610.a(hinfc620_gen.o)
 .debug_abbrev  0x000047bb      0x1d3 drivers/mtd/spi/libspi_flash.a(spi_compatible.o)
 .debug_abbrev  0x0000498e      0x4de drivers/mtd/spi/hisfc350/libhisfcv350.a(hisfc350.o)
 .debug_abbrev  0x00004e6c      0x2cb drivers/mtd/spi/hisfc350/libhisfcv350.a(hisfc350_spi_ids.o)
 .debug_abbrev  0x00005137      0x482 drivers/net/higmacv300/libhigmacv300.a(higmac.o)
 .debug_abbrev  0x000055b9      0x203 drivers/net/higmacv300/libhigmacv300.a(mdio.o)
 .debug_abbrev  0x000057bc      0x31e drivers/net/higmacv300/libhigmacv300.a(ctrl.o)
 .debug_abbrev  0x00005ada      0x1a1 drivers/serial/libserial.a(serial_pl01x.o)
 .debug_abbrev  0x00005c7b      0x153 common/libcommon.a(cmd_boot.o)
 .debug_abbrev  0x00005dce      0x46f common/libcommon.a(cmd_bootm.o)
 .debug_abbrev  0x0000623d      0x37b common/libcommon.a(cmd_ddr_training_v300.o)
 .debug_abbrev  0x000065b8      0x231 common/libcommon.a(cmd_fat.o)
 .debug_abbrev  0x000067e9      0x1bf common/libcommon.a(cmd_getinfo.o)
 .debug_abbrev  0x000069a8       0xf6 common/libcommon.a(cmd_help.o)
 .debug_abbrev  0x00006a9e      0x3ca common/libcommon.a(cmd_load.o)
 .debug_abbrev  0x00006e68      0x32c common/libcommon.a(cmd_mem.o)
 .debug_abbrev  0x00007194      0x2e6 common/libcommon.a(cmd_mii.o)
 .debug_abbrev  0x0000747a      0x4d5 common/libcommon.a(cmd_nand.o)
 .debug_abbrev  0x0000794f      0x2ab common/libcommon.a(cmd_net.o)
 .debug_abbrev  0x00007bfa      0x3c7 common/libcommon.a(cmd_nvedit.o)
 .debug_abbrev  0x00007fc1      0x334 common/libcommon.a(cmd_sf.o)
 .debug_abbrev  0x000082f5      0x488 common/libcommon.a(cmd_usb.o)
 .debug_abbrev  0x0000877d      0x110 common/libcommon.a(cmd_version.o)
 .debug_abbrev  0x0000888d      0x3ee common/libcommon.a(command.o)
 .debug_abbrev  0x00008c7b      0x486 common/libcommon.a(console.o)
 .debug_abbrev  0x00009101      0x30d common/libcommon.a(dlmalloc.o)
 .debug_abbrev  0x0000940e      0x20b common/libcommon.a(download_process.o)
 .debug_abbrev  0x00009619      0x29b common/libcommon.a(env_common.o)
 .debug_abbrev  0x000098b4      0x179 common/libcommon.a(env_common_func.o)
 .debug_abbrev  0x00009a2d      0x38c common/libcommon.a(env_nand.o)
 .debug_abbrev  0x00009db9      0x2e1 common/libcommon.a(env_sf.o)
 .debug_abbrev  0x0000a09a      0x145 common/libcommon.a(exports.o)
 .debug_abbrev  0x0000a1df      0x17a common/libcommon.a(hi3516a_ddr_training_printf.o)
 .debug_abbrev  0x0000a359      0x471 common/libcommon.a(image.o)
 .debug_abbrev  0x0000a7ca      0x3fc common/libcommon.a(main.o)
 .debug_abbrev  0x0000abc6      0x2d7 common/libcommon.a(miiphyutil.o)
 .debug_abbrev  0x0000ae9d      0x24c common/libcommon.a(stdio.o)
 .debug_abbrev  0x0000b0e9      0x496 common/libcommon.a(usb.o)
 .debug_abbrev  0x0000b57f      0x3f3 common/libcommon.a(usb_storage.o)
 .debug_abbrev  0x0000b972      0x381 common/libcommon.a(xyzModem.o)
 .debug_abbrev  0x0000bcf3       0x4b product/libproduct.a(sample.o)
 .debug_abbrev  0x0000bd3e      0x15c board/hi3516a/libhi3516a.a(board.o)
 .debug_abbrev  0x0000be9a       0xc0 lib/libgeneric.a(crc16.o)
 .debug_abbrev  0x0000bf5a      0x115 lib/libgeneric.a(crc32.o)
 .debug_abbrev  0x0000c06f       0x3e lib/libgeneric.a(ctype.o)
 .debug_abbrev  0x0000c0ad      0x173 lib/libgeneric.a(display_options.o)
 .debug_abbrev  0x0000c220       0x98 lib/libgeneric.a(div64.o)
 .debug_abbrev  0x0000c2b8      0x1bb lib/libgeneric.a(gunzip.o)
 .debug_abbrev  0x0000c473      0x108 lib/libgeneric.a(net_utils.o)
 .debug_abbrev  0x0000c57b      0x1f9 lib/libgeneric.a(string.o)
 .debug_abbrev  0x0000c774       0x9e lib/libgeneric.a(time.o)
 .debug_abbrev  0x0000c812      0x430 lib/libgeneric.a(vsprintf.o)
 .debug_abbrev  0x0000cc42      0x10b lib/libgeneric.a(match_table.o)
 .debug_abbrev  0x0000cd4d      0x3b1 lib/libgeneric.a(zlib.o)
 .debug_abbrev  0x0000d0fe      0x1a2 arch/arm/cpu/hi3516a/hi3516a/libhi3516a.a(timer.o)
 .debug_abbrev  0x0000d2a0      0x2d8 arch/arm/lib/libarm.a(bootm.o)
 .debug_abbrev  0x0000d578       0x51 arch/arm/lib/libarm.a(cache.o)
 .debug_abbrev  0x0000d5c9      0x10b arch/arm/lib/libarm.a(process.o)
 .debug_abbrev  0x0000d6d4      0x1c3 arch/arm/lib/libarm.a(cache-cp15.o)
 .debug_abbrev  0x0000d897      0x128 arch/arm/lib/libarm.a(reset.o)
 .debug_abbrev  0x0000d9bf      0x1a3 arch/arm/lib/libarm.a(ddr_layout.o)
 .debug_abbrev  0x0000db62      0x119 arch/arm/lib/libarm.a(ddr_size.o)
 .debug_abbrev  0x0000dc7b      0x154 arch/arm/lib/libarm.a(cpu_info.o)
 .debug_abbrev  0x0000ddcf       0x14 arch/arm/lib/libarm.a(mmu.o)
 .debug_abbrev  0x0000dde3       0x14 arch/arm/lib/libarm.a(cache_ops.o)
 .debug_abbrev  0x0000ddf7      0x3f6 fs/fat/libfat.a(fat.o)
 .debug_abbrev  0x0000e1ed      0x2a7 disk/libdisk.a(part.o)
 .debug_abbrev  0x0000e494      0x280 disk/libdisk.a(part_dos.o)
 .debug_abbrev  0x0000e714      0x421 drivers/mtd/nand/libnand.a(nand_util.o)
 .debug_abbrev  0x0000eb35      0x1d0 drivers/mtd/spi/libspi_flash.a(spi_ids.o)
 .debug_abbrev  0x0000ed05      0x451 drivers/usb/host/hiusb/libhiusb.a(hiusb-ohci.o)
 .debug_abbrev  0x0000f156      0x107 arch/arm/cpu/hi3516a/libhi3516a.a(cpu.o)
 .debug_abbrev  0x0000f25d       0xb3 /home/jun/hi3516dv100/3.software_source_code/osdrv/opensource/uboot/u-boot-2010.06/arch/arm/lib/eabi_compat.o
 .debug_abbrev  0x0000f310       0x14 /opt/hisi-linux/x86-arm/arm-hisiv300-linux/bin/../lib/gcc/arm-hisiv300-linux-uclibcgnueabi/4.8.3/libgcc.a(_udivsi3.o)
 .debug_abbrev  0x0000f324       0x14 /opt/hisi-linux/x86-arm/arm-hisiv300-linux/bin/../lib/gcc/arm-hisiv300-linux-uclibcgnueabi/4.8.3/libgcc.a(_divsi3.o)
 .debug_abbrev  0x0000f338       0x14 /opt/hisi-linux/x86-arm/arm-hisiv300-linux/bin/../lib/gcc/arm-hisiv300-linux-uclibcgnueabi/4.8.3/libgcc.a(_lshrdi3.o)
 .debug_abbrev  0x0000f34c       0x14 /opt/hisi-linux/x86-arm/arm-hisiv300-linux/bin/../lib/gcc/arm-hisiv300-linux-uclibcgnueabi/4.8.3/libgcc.a(_ashrdi3.o)
 .debug_abbrev  0x0000f360       0x14 /opt/hisi-linux/x86-arm/arm-hisiv300-linux/bin/../lib/gcc/arm-hisiv300-linux-uclibcgnueabi/4.8.3/libgcc.a(_ashldi3.o)
 .debug_abbrev  0x0000f374       0x14 /opt/hisi-linux/x86-arm/arm-hisiv300-linux/bin/../lib/gcc/arm-hisiv300-linux-uclibcgnueabi/4.8.3/libgcc.a(_dvmd_lnx.o)

.debug_aranges  0x00000000      0xdc0
 .debug_aranges
                0x00000000       0x20 arch/arm/cpu/hi3516a/start.o
 .debug_aranges
                0x00000020       0x20 arch/arm/cpu/hi3516a/libhi3516a.a(lowlevel_init_v300.o)
 .debug_aranges
                0x00000040       0x20 arch/arm/cpu/hi3516a/libhi3516a.a(lowlevel_init_svb.o)
 .debug_aranges
                0x00000060       0x20 arch/arm/cpu/hi3516a/libhi3516a.a(ddrphy_training_func.o)
 .debug_aranges
                0x00000080       0x20 arch/arm/cpu/hi3516a/libhi3516a.a(ddrphy_training_print.o)
 .debug_aranges
                0x000000a0       0x20 arch/arm/cpu/hi3516a/libhi3516a.a(uart.o)
 .debug_aranges
                0x000000c0       0x20 arch/arm/cpu/hi3516a/libhi3516a.a(chip.o)
 .debug_aranges
                0x000000e0       0x20 arch/arm/cpu/hi3516a/libhi3516a.a(ddrphy_training.o)
 .debug_aranges
                0x00000100       0x20 arch/arm/cpu/hi3516a/libhi3516a.a(ddr_dataeye_training.o)
 .debug_aranges
                0x00000120       0x20 arch/arm/lib/libarm.a(board.o)
 .debug_aranges
                0x00000140       0x20 arch/arm/lib/libarm.a(interrupts.o)
 .debug_aranges
                0x00000160       0x20 net/libnet.a(eth.o)
 .debug_aranges
                0x00000180       0x20 net/libnet.a(net.o)
 .debug_aranges
                0x000001a0       0x20 net/libnet.a(rarp.o)
 .debug_aranges
                0x000001c0       0x20 net/libnet.a(tftp.o)
 .debug_aranges
                0x000001e0       0x20 net/libnet.a(bootp.o)
 .debug_aranges
                0x00000200       0x20 drivers/mtd/nand/libnand.a(nand.o)
 .debug_aranges
                0x00000220       0x20 drivers/mtd/nand/libnand.a(nand_base.o)
 .debug_aranges
                0x00000240       0x20 drivers/mtd/nand/libnand.a(nand_bbt.o)
 .debug_aranges
                0x00000260       0x20 drivers/mtd/nand/libnand.a(nand_ecc.o)
 .debug_aranges
                0x00000280       0x18 drivers/mtd/nand/libnand.a(nand_ids.o)
 .debug_aranges
                0x00000298       0x20 drivers/mtd/nand/libnand.a(hinfc_common.o)
 .debug_aranges
                0x000002b8       0x20 drivers/mtd/nand/hinfc610/libhinfcv610.a(hinfc610.o)
 .debug_aranges
                0x000002d8       0x20 drivers/mtd/nand/hinfc610/libhinfcv610.a(hinfc610_gen.o)
 .debug_aranges
                0x000002f8       0x20 drivers/mtd/nand/hinfc610/libhinfcv610.a(hinfc610_spl_ids.o)
 .debug_aranges
                0x00000318       0x20 drivers/mtd/nand/hinfc610/libhinfcv610.a(hinfc610_read_retry_hynix_bg_cdie.o)
 .debug_aranges
                0x00000338       0x20 drivers/mtd/nand/hinfc610/libhinfcv610.a(hinfc610_read_retry_hynix_bg_bdie.o)
 .debug_aranges
                0x00000358       0x20 drivers/mtd/nand/hinfc610/libhinfcv610.a(hinfc610_read_retry_hynix_cg_adie.o)
 .debug_aranges
                0x00000378       0x20 drivers/mtd/nand/hinfc610/libhinfcv610.a(hinfc610_read_retry_micron.o)
 .debug_aranges
                0x00000398       0x20 drivers/mtd/nand/hinfc610/libhinfcv610.a(hinfc610_read_retry_samsung.o)
 .debug_aranges
                0x000003b8       0x20 drivers/mtd/nand/hinfc610/libhinfcv610.a(hinfc610_read_retry_toshiba.o)
 .debug_aranges
                0x000003d8       0x20 drivers/mtd/nand/hinfc610/libhinfcv610.a(hinfc620_gen.o)
 .debug_aranges
                0x000003f8       0x20 drivers/mtd/spi/libspi_flash.a(spi_compatible.o)
 .debug_aranges
                0x00000418       0x20 drivers/mtd/spi/hisfc350/libhisfcv350.a(hisfc350.o)
 .debug_aranges
                0x00000438       0x20 drivers/mtd/spi/hisfc350/libhisfcv350.a(hisfc350_spi_ids.o)
 .debug_aranges
                0x00000458       0x20 drivers/net/higmacv300/libhigmacv300.a(higmac.o)
 .debug_aranges
                0x00000478       0x20 drivers/net/higmacv300/libhigmacv300.a(mdio.o)
 .debug_aranges
                0x00000498       0x20 drivers/net/higmacv300/libhigmacv300.a(ctrl.o)
 .debug_aranges
                0x000004b8       0x20 drivers/serial/libserial.a(serial_pl01x.o)
 .debug_aranges
                0x000004d8       0x20 common/libcommon.a(cmd_boot.o)
 .debug_aranges
                0x000004f8       0x20 common/libcommon.a(cmd_bootm.o)
 .debug_aranges
                0x00000518       0x20 common/libcommon.a(cmd_ddr_training_v300.o)
 .debug_aranges
                0x00000538       0x20 common/libcommon.a(cmd_fat.o)
 .debug_aranges
                0x00000558       0x20 common/libcommon.a(cmd_getinfo.o)
 .debug_aranges
                0x00000578       0x20 common/libcommon.a(cmd_help.o)
 .debug_aranges
                0x00000598       0x20 common/libcommon.a(cmd_load.o)
 .debug_aranges
                0x000005b8       0x20 common/libcommon.a(cmd_mem.o)
 .debug_aranges
                0x000005d8       0x20 common/libcommon.a(cmd_mii.o)
 .debug_aranges
                0x000005f8       0x30 common/libcommon.a(cmd_nand.o)
 .debug_aranges
                0x00000628       0x20 common/libcommon.a(cmd_net.o)
 .debug_aranges
                0x00000648       0x20 common/libcommon.a(cmd_nvedit.o)
 .debug_aranges
                0x00000668       0x20 common/libcommon.a(cmd_sf.o)
 .debug_aranges
                0x00000688       0x20 common/libcommon.a(cmd_usb.o)
 .debug_aranges
                0x000006a8       0x20 common/libcommon.a(cmd_version.o)
 .debug_aranges
                0x000006c8       0x20 common/libcommon.a(command.o)
 .debug_aranges
                0x000006e8       0x20 common/libcommon.a(console.o)
 .debug_aranges
                0x00000708       0x20 common/libcommon.a(dlmalloc.o)
 .debug_aranges
                0x00000728       0x20 common/libcommon.a(download_process.o)
 .debug_aranges
                0x00000748       0x20 common/libcommon.a(env_common.o)
 .debug_aranges
                0x00000768       0x20 common/libcommon.a(env_common_func.o)
 .debug_aranges
                0x00000788       0x20 common/libcommon.a(env_nand.o)
 .debug_aranges
                0x000007a8       0x20 common/libcommon.a(env_sf.o)
 .debug_aranges
                0x000007c8       0x20 common/libcommon.a(exports.o)
 .debug_aranges
                0x000007e8       0x20 common/libcommon.a(hi3516a_ddr_training_printf.o)
 .debug_aranges
                0x00000808       0x20 common/libcommon.a(image.o)
 .debug_aranges
                0x00000828       0x20 common/libcommon.a(main.o)
 .debug_aranges
                0x00000848       0x20 common/libcommon.a(miiphyutil.o)
 .debug_aranges
                0x00000868       0x20 common/libcommon.a(stdio.o)
 .debug_aranges
                0x00000888       0x20 common/libcommon.a(usb.o)
 .debug_aranges
                0x000008a8       0x20 common/libcommon.a(usb_storage.o)
 .debug_aranges
                0x000008c8       0x20 common/libcommon.a(xyzModem.o)
 .debug_aranges
                0x000008e8       0x20 product/libproduct.a(sample.o)
 .debug_aranges
                0x00000908       0x20 board/hi3516a/libhi3516a.a(board.o)
 .debug_aranges
                0x00000928       0x20 lib/libgeneric.a(crc16.o)
 .debug_aranges
                0x00000948       0x20 lib/libgeneric.a(crc32.o)
 .debug_aranges
                0x00000968       0x18 lib/libgeneric.a(ctype.o)
 .debug_aranges
                0x00000980       0x20 lib/libgeneric.a(display_options.o)
 .debug_aranges
                0x000009a0       0x20 lib/libgeneric.a(div64.o)
 .debug_aranges
                0x000009c0       0x20 lib/libgeneric.a(gunzip.o)
 .debug_aranges
                0x000009e0       0x20 lib/libgeneric.a(net_utils.o)
 .debug_aranges
                0x00000a00       0x20 lib/libgeneric.a(string.o)
 .debug_aranges
                0x00000a20       0x20 lib/libgeneric.a(time.o)
 .debug_aranges
                0x00000a40       0x20 lib/libgeneric.a(vsprintf.o)
 .debug_aranges
                0x00000a60       0x20 lib/libgeneric.a(match_table.o)
 .debug_aranges
                0x00000a80       0x20 lib/libgeneric.a(zlib.o)
 .debug_aranges
                0x00000aa0       0x20 arch/arm/cpu/hi3516a/hi3516a/libhi3516a.a(timer.o)
 .debug_aranges
                0x00000ac0       0x20 arch/arm/lib/libarm.a(bootm.o)
 .debug_aranges
                0x00000ae0       0x20 arch/arm/lib/libarm.a(cache.o)
 .debug_aranges
                0x00000b00       0x20 arch/arm/lib/libarm.a(process.o)
 .debug_aranges
                0x00000b20       0x20 arch/arm/lib/libarm.a(cache-cp15.o)
 .debug_aranges
                0x00000b40       0x20 arch/arm/lib/libarm.a(reset.o)
 .debug_aranges
                0x00000b60       0x20 arch/arm/lib/libarm.a(ddr_layout.o)
 .debug_aranges
                0x00000b80       0x20 arch/arm/lib/libarm.a(ddr_size.o)
 .debug_aranges
                0x00000ba0       0x20 arch/arm/lib/libarm.a(cpu_info.o)
 .debug_aranges
                0x00000bc0       0x20 arch/arm/lib/libarm.a(mmu.o)
 .debug_aranges
                0x00000be0       0x20 arch/arm/lib/libarm.a(cache_ops.o)
 .debug_aranges
                0x00000c00       0x20 fs/fat/libfat.a(fat.o)
 .debug_aranges
                0x00000c20       0x20 disk/libdisk.a(part.o)
 .debug_aranges
                0x00000c40       0x20 disk/libdisk.a(part_dos.o)
 .debug_aranges
                0x00000c60       0x20 drivers/mtd/nand/libnand.a(nand_util.o)
 .debug_aranges
                0x00000c80       0x20 drivers/mtd/spi/libspi_flash.a(spi_ids.o)
 .debug_aranges
                0x00000ca0       0x20 drivers/usb/host/hiusb/libhiusb.a(hiusb-ohci.o)
 .debug_aranges
                0x00000cc0       0x20 arch/arm/cpu/hi3516a/libhi3516a.a(cpu.o)
 .debug_aranges
                0x00000ce0       0x20 /home/jun/hi3516dv100/3.software_source_code/osdrv/opensource/uboot/u-boot-2010.06/arch/arm/lib/eabi_compat.o
 .debug_aranges
                0x00000d00       0x20 /opt/hisi-linux/x86-arm/arm-hisiv300-linux/bin/../lib/gcc/arm-hisiv300-linux-uclibcgnueabi/4.8.3/libgcc.a(_udivsi3.o)
 .debug_aranges
                0x00000d20       0x20 /opt/hisi-linux/x86-arm/arm-hisiv300-linux/bin/../lib/gcc/arm-hisiv300-linux-uclibcgnueabi/4.8.3/libgcc.a(_divsi3.o)
 .debug_aranges
                0x00000d40       0x20 /opt/hisi-linux/x86-arm/arm-hisiv300-linux/bin/../lib/gcc/arm-hisiv300-linux-uclibcgnueabi/4.8.3/libgcc.a(_lshrdi3.o)
 .debug_aranges
                0x00000d60       0x20 /opt/hisi-linux/x86-arm/arm-hisiv300-linux/bin/../lib/gcc/arm-hisiv300-linux-uclibcgnueabi/4.8.3/libgcc.a(_ashrdi3.o)
 .debug_aranges
                0x00000d80       0x20 /opt/hisi-linux/x86-arm/arm-hisiv300-linux/bin/../lib/gcc/arm-hisiv300-linux-uclibcgnueabi/4.8.3/libgcc.a(_ashldi3.o)
 .debug_aranges
                0x00000da0       0x20 /opt/hisi-linux/x86-arm/arm-hisiv300-linux/bin/../lib/gcc/arm-hisiv300-linux-uclibcgnueabi/4.8.3/libgcc.a(_dvmd_lnx.o)

.debug_loc      0x00000000    0x297ad
 .debug_loc     0x00000000      0x170 arch/arm/cpu/hi3516a/libhi3516a.a(lowlevel_init_v300.o)
 .debug_loc     0x00000170      0x430 arch/arm/cpu/hi3516a/libhi3516a.a(lowlevel_init_svb.o)
 .debug_loc     0x000005a0      0x437 arch/arm/cpu/hi3516a/libhi3516a.a(ddrphy_training.o)
 .debug_loc     0x000009d7     0x1040 arch/arm/cpu/hi3516a/libhi3516a.a(ddr_dataeye_training.o)
 .debug_loc     0x00001a17       0x67 arch/arm/lib/libarm.a(board.o)
 .debug_loc     0x00001a7e      0x17a arch/arm/lib/libarm.a(interrupts.o)
 .debug_loc     0x00001bf8      0x19f net/libnet.a(eth.o)
 .debug_loc     0x00001d97      0xe78 net/libnet.a(net.o)
 .debug_loc     0x00002c0f       0x75 net/libnet.a(rarp.o)
 .debug_loc     0x00002c84      0x4f2 net/libnet.a(tftp.o)
 .debug_loc     0x00003176      0x838 net/libnet.a(bootp.o)
 .debug_loc     0x000039ae     0x3b70 drivers/mtd/nand/libnand.a(nand_base.o)
 .debug_loc     0x0000751e     0x1b20 drivers/mtd/nand/libnand.a(nand_bbt.o)
 .debug_loc     0x0000903e      0x5c3 drivers/mtd/nand/libnand.a(nand_ecc.o)
 .debug_loc     0x00009601      0x1e4 drivers/mtd/nand/libnand.a(hinfc_common.o)
 .debug_loc     0x000097e5      0xd10 drivers/mtd/nand/hinfc610/libhinfcv610.a(hinfc610.o)
 .debug_loc     0x0000a4f5       0xb0 drivers/mtd/nand/hinfc610/libhinfcv610.a(hinfc610_gen.o)
 .debug_loc     0x0000a5a5      0x45b drivers/mtd/nand/hinfc610/libhinfcv610.a(hinfc610_spl_ids.o)
 .debug_loc     0x0000aa00      0x416 drivers/mtd/nand/hinfc610/libhinfcv610.a(hinfc610_read_retry_hynix_bg_cdie.o)
 .debug_loc     0x0000ae16      0x1cd drivers/mtd/nand/hinfc610/libhinfcv610.a(hinfc610_read_retry_hynix_bg_bdie.o)
 .debug_loc     0x0000afe3      0x46e drivers/mtd/nand/hinfc610/libhinfcv610.a(hinfc610_read_retry_hynix_cg_adie.o)
 .debug_loc     0x0000b451       0xfd drivers/mtd/nand/hinfc610/libhinfcv610.a(hinfc610_read_retry_micron.o)
 .debug_loc     0x0000b54e      0x131 drivers/mtd/nand/hinfc610/libhinfcv610.a(hinfc610_read_retry_samsung.o)
 .debug_loc     0x0000b67f      0x144 drivers/mtd/nand/hinfc610/libhinfcv610.a(hinfc610_read_retry_toshiba.o)
 .debug_loc     0x0000b7c3       0xb0 drivers/mtd/nand/hinfc610/libhinfcv610.a(hinfc620_gen.o)
 .debug_loc     0x0000b873      0x1d5 drivers/mtd/spi/libspi_flash.a(spi_compatible.o)
 .debug_loc     0x0000ba48     0x10b7 drivers/mtd/spi/hisfc350/libhisfcv350.a(hisfc350.o)
 .debug_loc     0x0000caff      0x9e9 drivers/mtd/spi/hisfc350/libhisfcv350.a(hisfc350_spi_ids.o)
 .debug_loc     0x0000d4e8     0x134d drivers/net/higmacv300/libhigmacv300.a(higmac.o)
 .debug_loc     0x0000e835      0x4a1 drivers/net/higmacv300/libhigmacv300.a(mdio.o)
 .debug_loc     0x0000ecd6      0x523 drivers/net/higmacv300/libhigmacv300.a(ctrl.o)
 .debug_loc     0x0000f1f9      0x177 drivers/serial/libserial.a(serial_pl01x.o)
 .debug_loc     0x0000f370      0x1c3 common/libcommon.a(cmd_boot.o)
 .debug_loc     0x0000f533      0xa2f common/libcommon.a(cmd_bootm.o)
 .debug_loc     0x0000ff62      0x629 common/libcommon.a(cmd_ddr_training_v300.o)
 .debug_loc     0x0001058b      0x5b6 common/libcommon.a(cmd_fat.o)
 .debug_loc     0x00010b41      0x158 common/libcommon.a(cmd_getinfo.o)
 .debug_loc     0x00010c99       0xb2 common/libcommon.a(cmd_help.o)
 .debug_loc     0x00010d4b      0x97b common/libcommon.a(cmd_load.o)
 .debug_loc     0x000116c6     0x10a6 common/libcommon.a(cmd_mem.o)
 .debug_loc     0x0001276c      0x6c9 common/libcommon.a(cmd_mii.o)
 .debug_loc     0x00012e35      0xd35 common/libcommon.a(cmd_nand.o)
 .debug_loc     0x00013b6a      0x34e common/libcommon.a(cmd_net.o)
 .debug_loc     0x00013eb8      0x8c5 common/libcommon.a(cmd_nvedit.o)
 .debug_loc     0x0001477d      0x825 common/libcommon.a(cmd_sf.o)
 .debug_loc     0x00014fa2      0x914 common/libcommon.a(cmd_usb.o)
 .debug_loc     0x000158b6       0x84 common/libcommon.a(cmd_version.o)
 .debug_loc     0x0001593a      0xd3a common/libcommon.a(command.o)
 .debug_loc     0x00016674      0x474 common/libcommon.a(console.o)
 .debug_loc     0x00016ae8     0x16f5 common/libcommon.a(dlmalloc.o)
 .debug_loc     0x000181dd      0x26c common/libcommon.a(download_process.o)
 .debug_loc     0x00018449      0x2ff common/libcommon.a(env_common.o)
 .debug_loc     0x00018748       0x3a common/libcommon.a(env_common_func.o)
 .debug_loc     0x00018782      0x2e3 common/libcommon.a(env_nand.o)
 .debug_loc     0x00018a65      0x10e common/libcommon.a(env_sf.o)
 .debug_loc     0x00018b73      0x3d9 common/libcommon.a(hi3516a_ddr_training_printf.o)
 .debug_loc     0x00018f4c      0xb16 common/libcommon.a(image.o)
 .debug_loc     0x00019a62     0x1321 common/libcommon.a(main.o)
 .debug_loc     0x0001ad83      0x2ad common/libcommon.a(miiphyutil.o)
 .debug_loc     0x0001b030       0xda common/libcommon.a(stdio.o)
 .debug_loc     0x0001b10a     0x15df common/libcommon.a(usb.o)
 .debug_loc     0x0001c6e9     0x13c2 common/libcommon.a(usb_storage.o)
 .debug_loc     0x0001daab      0x850 common/libcommon.a(xyzModem.o)
 .debug_loc     0x0001e2fb       0x3b board/hi3516a/libhi3516a.a(board.o)
 .debug_loc     0x0001e336       0xab lib/libgeneric.a(crc16.o)
 .debug_loc     0x0001e3e1      0x254 lib/libgeneric.a(crc32.o)
 .debug_loc     0x0001e635      0x230 lib/libgeneric.a(display_options.o)
 .debug_loc     0x0001e865      0x160 lib/libgeneric.a(div64.o)
 .debug_loc     0x0001e9c5      0x3c9 lib/libgeneric.a(gunzip.o)
 .debug_loc     0x0001ed8e       0xb7 lib/libgeneric.a(net_utils.o)
 .debug_loc     0x0001ee45      0xdec lib/libgeneric.a(string.o)
 .debug_loc     0x0001fc31       0x39 lib/libgeneric.a(time.o)
 .debug_loc     0x0001fc6a     0x19b7 lib/libgeneric.a(vsprintf.o)
 .debug_loc     0x00021621      0x328 lib/libgeneric.a(match_table.o)
 .debug_loc     0x00021949     0x28fd lib/libgeneric.a(zlib.o)
 .debug_loc     0x00024246      0x284 arch/arm/cpu/hi3516a/hi3516a/libhi3516a.a(timer.o)
 .debug_loc     0x000244ca      0x1e2 arch/arm/lib/libarm.a(bootm.o)
 .debug_loc     0x000246ac       0x63 arch/arm/lib/libarm.a(process.o)
 .debug_loc     0x0002470f       0xff arch/arm/lib/libarm.a(cache-cp15.o)
 .debug_loc     0x0002480e       0x84 arch/arm/lib/libarm.a(reset.o)
 .debug_loc     0x00024892      0x22e arch/arm/lib/libarm.a(ddr_layout.o)
 .debug_loc     0x00024ac0       0xab arch/arm/lib/libarm.a(ddr_size.o)
 .debug_loc     0x00024b6b       0x98 arch/arm/lib/libarm.a(cpu_info.o)
 .debug_loc     0x00024c03     0x1549 fs/fat/libfat.a(fat.o)
 .debug_loc     0x0002614c      0x2a7 disk/libdisk.a(part.o)
 .debug_loc     0x000263f3      0x3f3 disk/libdisk.a(part_dos.o)
 .debug_loc     0x000267e6      0xc64 drivers/mtd/nand/libnand.a(nand_util.o)
 .debug_loc     0x0002744a      0x251 drivers/mtd/spi/libspi_flash.a(spi_ids.o)
 .debug_loc     0x0002769b     0x20e6 drivers/usb/host/hiusb/libhiusb.a(hiusb-ohci.o)
 .debug_loc     0x00029781       0x2c /home/jun/hi3516dv100/3.software_source_code/osdrv/opensource/uboot/u-boot-2010.06/arch/arm/lib/eabi_compat.o

.debug_ranges   0x00000000     0x1d08
 .debug_ranges  0x00000000       0x18 arch/arm/cpu/hi3516a/libhi3516a.a(lowlevel_init_v300.o)
 .debug_ranges  0x00000018      0x1f8 arch/arm/cpu/hi3516a/libhi3516a.a(lowlevel_init_svb.o)
 .debug_ranges  0x00000210       0x40 arch/arm/cpu/hi3516a/libhi3516a.a(ddrphy_training.o)
 .debug_ranges  0x00000250       0x50 arch/arm/cpu/hi3516a/libhi3516a.a(ddr_dataeye_training.o)
 .debug_ranges  0x000002a0       0x18 arch/arm/lib/libarm.a(board.o)
 .debug_ranges  0x000002b8       0x90 net/libnet.a(net.o)
 .debug_ranges  0x00000348       0xb8 net/libnet.a(tftp.o)
 .debug_ranges  0x00000400       0xe8 net/libnet.a(bootp.o)
 .debug_ranges  0x000004e8      0x240 drivers/mtd/nand/libnand.a(nand_base.o)
 .debug_ranges  0x00000728       0xe8 drivers/mtd/nand/libnand.a(nand_bbt.o)
 .debug_ranges  0x00000810       0x18 drivers/mtd/nand/libnand.a(nand_ecc.o)
 .debug_ranges  0x00000828       0x30 drivers/mtd/nand/hinfc610/libhinfcv610.a(hinfc610.o)
 .debug_ranges  0x00000858       0x60 drivers/mtd/nand/hinfc610/libhinfcv610.a(hinfc610_read_retry_hynix_bg_cdie.o)
 .debug_ranges  0x000008b8       0x18 drivers/mtd/nand/hinfc610/libhinfcv610.a(hinfc610_read_retry_hynix_bg_bdie.o)
 .debug_ranges  0x000008d0       0x60 drivers/mtd/nand/hinfc610/libhinfcv610.a(hinfc610_read_retry_hynix_cg_adie.o)
 .debug_ranges  0x00000930      0x158 drivers/mtd/spi/hisfc350/libhisfcv350.a(hisfc350.o)
 .debug_ranges  0x00000a88      0x270 drivers/net/higmacv300/libhigmacv300.a(higmac.o)
 .debug_ranges  0x00000cf8       0x78 drivers/net/higmacv300/libhigmacv300.a(mdio.o)
 .debug_ranges  0x00000d70      0x150 drivers/net/higmacv300/libhigmacv300.a(ctrl.o)
 .debug_ranges  0x00000ec0       0x50 drivers/serial/libserial.a(serial_pl01x.o)
 .debug_ranges  0x00000f10       0xb8 common/libcommon.a(cmd_bootm.o)
 .debug_ranges  0x00000fc8       0x60 common/libcommon.a(cmd_load.o)
 .debug_ranges  0x00001028       0x30 common/libcommon.a(cmd_mem.o)
 .debug_ranges  0x00001058       0x80 common/libcommon.a(cmd_mii.o)
 .debug_ranges  0x000010d8       0x78 common/libcommon.a(cmd_nand.o)
 .debug_ranges  0x00001150       0x60 common/libcommon.a(cmd_nvedit.o)
 .debug_ranges  0x000011b0       0xf0 common/libcommon.a(cmd_sf.o)
 .debug_ranges  0x000012a0       0x50 common/libcommon.a(cmd_usb.o)
 .debug_ranges  0x000012f0       0x60 common/libcommon.a(command.o)
 .debug_ranges  0x00001350       0x18 common/libcommon.a(dlmalloc.o)
 .debug_ranges  0x00001368       0x88 common/libcommon.a(env_nand.o)
 .debug_ranges  0x000013f0       0x18 common/libcommon.a(env_sf.o)
 .debug_ranges  0x00001408       0x30 common/libcommon.a(hi3516a_ddr_training_printf.o)
 .debug_ranges  0x00001438       0x68 common/libcommon.a(image.o)
 .debug_ranges  0x000014a0       0x88 common/libcommon.a(main.o)
 .debug_ranges  0x00001528       0x18 common/libcommon.a(miiphyutil.o)
 .debug_ranges  0x00001540       0x70 common/libcommon.a(stdio.o)
 .debug_ranges  0x000015b0       0x50 common/libcommon.a(usb.o)
 .debug_ranges  0x00001600       0xa0 common/libcommon.a(usb_storage.o)
 .debug_ranges  0x000016a0       0x18 common/libcommon.a(xyzModem.o)
 .debug_ranges  0x000016b8       0x10 lib/libgeneric.a(gunzip.o)
 .debug_ranges  0x000016c8       0xb0 lib/libgeneric.a(vsprintf.o)
 .debug_ranges  0x00001778       0x10 lib/libgeneric.a(match_table.o)
 .debug_ranges  0x00001788       0x68 lib/libgeneric.a(zlib.o)
 .debug_ranges  0x000017f0       0x60 arch/arm/cpu/hi3516a/hi3516a/libhi3516a.a(timer.o)
 .debug_ranges  0x00001850       0x60 arch/arm/lib/libarm.a(bootm.o)
 .debug_ranges  0x000018b0       0x18 arch/arm/lib/libarm.a(ddr_layout.o)
 .debug_ranges  0x000018c8       0xe0 fs/fat/libfat.a(fat.o)
 .debug_ranges  0x000019a8       0xf8 drivers/mtd/nand/libnand.a(nand_util.o)
 .debug_ranges  0x00001aa0      0x268 drivers/usb/host/hiusb/libhiusb.a(hiusb-ohci.o)

.debug_str      0x00000000     0xa5c7
 .debug_str     0x00000000      0x210 arch/arm/cpu/hi3516a/libhi3516a.a(lowlevel_init_v300.o)
                                0x239 (松开之前的大小)
 .debug_str     0x00000210      0x2c6 arch/arm/cpu/hi3516a/libhi3516a.a(lowlevel_init_svb.o)
                                0x48a (松开之前的大小)
 .debug_str     0x000004d6       0x24 arch/arm/cpu/hi3516a/libhi3516a.a(chip.o)
                                0x1d0 (松开之前的大小)
 .debug_str     0x000004fa      0x134 arch/arm/cpu/hi3516a/libhi3516a.a(ddrphy_training.o)
                                0x2e4 (松开之前的大小)
 .debug_str     0x0000062e      0x346 arch/arm/cpu/hi3516a/libhi3516a.a(ddr_dataeye_training.o)
                                0x583 (松开之前的大小)
 .debug_str     0x00000974      0x35d arch/arm/lib/libarm.a(board.o)
                                0x56b (松开之前的大小)
 .debug_str     0x00000cd1       0xc7 arch/arm/lib/libarm.a(interrupts.o)
                                0x309 (松开之前的大小)
 .debug_str     0x00000d98      0x10e net/libnet.a(eth.o)
                                0x379 (松开之前的大小)
 .debug_str     0x00000ea6      0x624 net/libnet.a(net.o)
                                0xa1e (松开之前的大小)
 .debug_str     0x000014ca       0x40 net/libnet.a(rarp.o)
                                0x35f (松开之前的大小)
 .debug_str     0x0000150a      0x287 net/libnet.a(tftp.o)
                                0x641 (松开之前的大小)
 .debug_str     0x00001791      0x161 net/libnet.a(bootp.o)
                                0x5e4 (松开之前的大小)
 .debug_str     0x000018f2      0x53b drivers/mtd/nand/libnand.a(nand.o)
                                0x9cf (松开之前的大小)
 .debug_str     0x00001e2d      0x859 drivers/mtd/nand/libnand.a(nand_base.o)
                               0x11ee (松开之前的大小)
 .debug_str     0x00002686      0x26e drivers/mtd/nand/libnand.a(nand_bbt.o)
                                0xbbb (松开之前的大小)
 .debug_str     0x000028f4       0x8c drivers/mtd/nand/libnand.a(nand_ecc.o)
                                0x647 (松开之前的大小)
 .debug_str     0x00002980        0xb drivers/mtd/nand/libnand.a(nand_ids.o)
                                0x286 (松开之前的大小)
 .debug_str     0x0000298b      0x1d1 drivers/mtd/nand/libnand.a(hinfc_common.o)
                                0xb2c (松开之前的大小)
 .debug_str     0x00002b5c      0x859 drivers/mtd/nand/hinfc610/libhinfcv610.a(hinfc610.o)
                               0x1290 (松开之前的大小)
 .debug_str     0x000033b5       0x26 drivers/mtd/nand/hinfc610/libhinfcv610.a(hinfc610_gen.o)
                                0x435 (松开之前的大小)
 .debug_str     0x000033db       0xbe drivers/mtd/nand/hinfc610/libhinfcv610.a(hinfc610_spl_ids.o)
                                0xa44 (松开之前的大小)
 .debug_str     0x00003499      0x15d drivers/mtd/nand/hinfc610/libhinfcv610.a(hinfc610_read_retry_hynix_bg_cdie.o)
                                0xc42 (松开之前的大小)
 .debug_str     0x000035f6       0xe2 drivers/mtd/nand/hinfc610/libhinfcv610.a(hinfc610_read_retry_hynix_bg_bdie.o)
                                0xbc6 (松开之前的大小)
 .debug_str     0x000036d8      0x147 drivers/mtd/nand/hinfc610/libhinfcv610.a(hinfc610_read_retry_hynix_cg_adie.o)
                                0xc43 (松开之前的大小)
 .debug_str     0x0000381f       0x7e drivers/mtd/nand/hinfc610/libhinfcv610.a(hinfc610_read_retry_micron.o)
                                0xb41 (松开之前的大小)
 .debug_str     0x0000389d       0x8a drivers/mtd/nand/hinfc610/libhinfcv610.a(hinfc610_read_retry_samsung.o)
                                0xb5b (松开之前的大小)
 .debug_str     0x00003927       0x98 drivers/mtd/nand/hinfc610/libhinfcv610.a(hinfc610_read_retry_toshiba.o)
                                0xb67 (松开之前的大小)
 .debug_str     0x000039bf       0xba drivers/mtd/nand/hinfc610/libhinfcv610.a(hinfc620_gen.o)
                                0x3e9 (松开之前的大小)
 .debug_str     0x00003a79      0x19b drivers/mtd/spi/libspi_flash.a(spi_compatible.o)
                                0x457 (松开之前的大小)
 .debug_str     0x00003c14      0x3a3 drivers/mtd/spi/hisfc350/libhisfcv350.a(hisfc350.o)
                                0x865 (松开之前的大小)
 .debug_str     0x00003fb7      0xa2b drivers/mtd/spi/hisfc350/libhisfcv350.a(hisfc350_spi_ids.o)
                                0xe37 (松开之前的大小)
 .debug_str     0x000049e2      0x7bd drivers/net/higmacv300/libhigmacv300.a(higmac.o)
                                0xb40 (松开之前的大小)
 .debug_str     0x0000519f       0xfb drivers/net/higmacv300/libhigmacv300.a(mdio.o)
                                0x3a1 (松开之前的大小)
 .debug_str     0x0000529a       0xa4 drivers/net/higmacv300/libhigmacv300.a(ctrl.o)
                                0x503 (松开之前的大小)
 .debug_str     0x0000533e      0x115 drivers/serial/libserial.a(serial_pl01x.o)
                                0x2e1 (松开之前的大小)
 .debug_str     0x00005453       0xd5 common/libcommon.a(cmd_boot.o)
                                0x2ce (松开之前的大小)
 .debug_str     0x00005528      0x4cb common/libcommon.a(cmd_bootm.o)
                                0x934 (松开之前的大小)
 .debug_str     0x000059f3      0x16d common/libcommon.a(cmd_ddr_training_v300.o)
                                0x4bb (松开之前的大小)
 .debug_str     0x00005b60      0x11d common/libcommon.a(cmd_fat.o)
                                0x3f1 (松开之前的大小)
 .debug_str     0x00005c7d       0x4a common/libcommon.a(cmd_getinfo.o)
                                0x38d (松开之前的大小)
 .debug_str     0x00005cc7       0x65 common/libcommon.a(cmd_help.o)
                                0x2c5 (松开之前的大小)
 .debug_str     0x00005d2c      0x308 common/libcommon.a(cmd_load.o)
                                0x6f6 (松开之前的大小)
 .debug_str     0x00006034      0x22c common/libcommon.a(cmd_mem.o)
                                0x536 (松开之前的大小)
 .debug_str     0x00006260      0x1d9 common/libcommon.a(cmd_mii.o)
                                0x558 (松开之前的大小)
 .debug_str     0x00006439      0x2d8 common/libcommon.a(cmd_nand.o)
                                0xde0 (松开之前的大小)
 .debug_str     0x00006711       0x9b common/libcommon.a(cmd_net.o)
                                0x48e (松开之前的大小)
 .debug_str     0x000067ac       0xd8 common/libcommon.a(cmd_nvedit.o)
                                0x504 (松开之前的大小)
 .debug_str     0x00006884      0x122 common/libcommon.a(cmd_sf.o)
                                0x5c5 (松开之前的大小)
 .debug_str     0x000069a6      0x53c common/libcommon.a(cmd_usb.o)
                                0xa5a (松开之前的大小)
 .debug_str     0x00006ee2       0x2e common/libcommon.a(cmd_version.o)
                                0x29c (松开之前的大小)
 .debug_str     0x00006f10      0x13f common/libcommon.a(command.o)
                                0x461 (松开之前的大小)
 .debug_str     0x0000704f      0x30c common/libcommon.a(console.o)
                                0x6ab (松开之前的大小)
 .debug_str     0x0000735b      0x2c5 common/libcommon.a(dlmalloc.o)
                                0x63c (松开之前的大小)
 .debug_str     0x00007620       0x84 common/libcommon.a(download_process.o)
                                0x308 (松开之前的大小)
 .debug_str     0x000076a4       0x77 common/libcommon.a(env_common.o)
                                0x437 (松开之前的大小)
 .debug_str     0x0000771b       0x58 common/libcommon.a(env_common_func.o)
                                0x2f5 (松开之前的大小)
 .debug_str     0x00007773       0xb2 common/libcommon.a(env_nand.o)
                                0x7b3 (松开之前的大小)
 .debug_str     0x00007825       0xb2 common/libcommon.a(env_sf.o)
                                0x4f4 (松开之前的大小)
 .debug_str     0x000078d7        0xa common/libcommon.a(exports.o)
                                0x46d (松开之前的大小)
 .debug_str     0x000078e1       0xee common/libcommon.a(hi3516a_ddr_training_printf.o)
                                0x367 (松开之前的大小)
 .debug_str     0x000079cf      0x219 common/libcommon.a(image.o)
                                0x8db (松开之前的大小)
 .debug_str     0x00007be8      0x217 common/libcommon.a(main.o)
                                0x670 (松开之前的大小)
 .debug_str     0x00007dff       0xb0 common/libcommon.a(miiphyutil.o)
                                0x3fc (松开之前的大小)
 .debug_str     0x00007eaf       0x33 common/libcommon.a(stdio.o)
                                0x401 (松开之前的大小)
 .debug_str     0x00007ee2      0x555 common/libcommon.a(usb.o)
                                0xc60 (松开之前的大小)
 .debug_str     0x00008437      0x42d common/libcommon.a(usb_storage.o)
                                0xc2c (松开之前的大小)
 .debug_str     0x00008864      0x15a common/libcommon.a(xyzModem.o)
                                0x471 (松开之前的大小)
 .debug_str     0x000089be      0x193 product/libproduct.a(sample.o)
                                0x235 (松开之前的大小)
 .debug_str     0x00008b51       0x85 board/hi3516a/libhi3516a.a(board.o)
                                0x320 (松开之前的大小)
 .debug_str     0x00008bd6       0x69 lib/libgeneric.a(crc16.o)
                                0x236 (松开之前的大小)
 .debug_str     0x00008c3f       0x41 lib/libgeneric.a(crc32.o)
                                0x288 (松开之前的大小)
 .debug_str     0x00008c80        0x8 lib/libgeneric.a(ctype.o)
                                0x199 (松开之前的大小)
 .debug_str     0x00008c88       0x32 lib/libgeneric.a(display_options.o)
                                0x2d3 (松开之前的大小)
 .debug_str     0x00008cba        0xe lib/libgeneric.a(div64.o)
                                0x24e (松开之前的大小)
 .debug_str     0x00008cc8      0x103 lib/libgeneric.a(gunzip.o)
                                0x37c (松开之前的大小)
 .debug_str     0x00008dcb        0xc lib/libgeneric.a(net_utils.o)
                                0x251 (松开之前的大小)
 .debug_str     0x00008dd7       0x87 lib/libgeneric.a(string.o)
                                0x321 (松开之前的大小)
 .debug_str     0x00008e5e       0x15 lib/libgeneric.a(time.o)
                                0x227 (松开之前的大小)
 .debug_str     0x00008e73       0xf5 lib/libgeneric.a(vsprintf.o)
                                0x47a (松开之前的大小)
 .debug_str     0x00008f68       0x33 lib/libgeneric.a(match_table.o)
                                0x2eb (松开之前的大小)
 .debug_str     0x00008f9b      0x2a0 lib/libgeneric.a(zlib.o)
                                0x6f6 (松开之前的大小)
 .debug_str     0x0000923b       0xf4 arch/arm/cpu/hi3516a/hi3516a/libhi3516a.a(timer.o)
                                0x2e4 (松开之前的大小)
 .debug_str     0x0000932f      0x246 arch/arm/lib/libarm.a(bootm.o)
                                0x758 (松开之前的大小)
 .debug_str     0x00009575       0x16 arch/arm/lib/libarm.a(cache.o)
                                0x230 (松开之前的大小)
 .debug_str     0x0000958b       0x1a arch/arm/lib/libarm.a(process.o)
                                0x255 (松开之前的大小)
 .debug_str     0x000095a5       0xdd arch/arm/lib/libarm.a(cache-cp15.o)
                                0x332 (松开之前的大小)
 .debug_str     0x00009682        0x8 arch/arm/lib/libarm.a(reset.o)
                                0x2aa (松开之前的大小)
 .debug_str     0x0000968a       0x88 arch/arm/lib/libarm.a(ddr_layout.o)
                                0x2ef (松开之前的大小)
 .debug_str     0x00009712       0x46 arch/arm/lib/libarm.a(ddr_size.o)
                                0x329 (松开之前的大小)
 .debug_str     0x00009758       0xbc arch/arm/lib/libarm.a(cpu_info.o)
                                0x336 (松开之前的大小)
 .debug_str     0x00009814      0x479 fs/fat/libfat.a(fat.o)
                                0x83a (松开之前的大小)
 .debug_str     0x00009c8d       0xf5 disk/libdisk.a(part.o)
                                0x464 (松开之前的大小)
 .debug_str     0x00009d82      0x114 disk/libdisk.a(part_dos.o)
                                0x462 (松开之前的大小)
 .debug_str     0x00009e96      0x133 drivers/mtd/nand/libnand.a(nand_util.o)
                                0xb7e (松开之前的大小)
 .debug_str     0x00009fc9       0x6a drivers/mtd/spi/libspi_flash.a(spi_ids.o)
                                0x382 (松开之前的大小)
 .debug_str     0x0000a033      0x550 drivers/usb/host/hiusb/libhiusb.a(hiusb-ohci.o)
                                0xc75 (松开之前的大小)
 .debug_str     0x0000a583       0x12 arch/arm/cpu/hi3516a/libhi3516a.a(cpu.o)
                                0x2d1 (松开之前的大小)
 .debug_str     0x0000a595       0x32 /home/jun/hi3516dv100/3.software_source_code/osdrv/opensource/uboot/u-boot-2010.06/arch/arm/lib/eabi_compat.o
                                0x247 (松开之前的大小)

.debug_frame    0x00000000     0x5bbc
 .debug_frame   0x00000000       0x2c arch/arm/cpu/hi3516a/libhi3516a.a(lowlevel_init_v300.o)
 .debug_frame   0x0000002c       0xb0 arch/arm/cpu/hi3516a/libhi3516a.a(lowlevel_init_svb.o)
 .debug_frame   0x000000dc       0x30 arch/arm/cpu/hi3516a/libhi3516a.a(chip.o)
 .debug_frame   0x0000010c       0x4c arch/arm/cpu/hi3516a/libhi3516a.a(ddrphy_training.o)
 .debug_frame   0x00000158      0x120 arch/arm/cpu/hi3516a/libhi3516a.a(ddr_dataeye_training.o)
 .debug_frame   0x00000278      0x10c arch/arm/lib/libarm.a(board.o)
 .debug_frame   0x00000384      0x134 arch/arm/lib/libarm.a(interrupts.o)
 .debug_frame   0x000004b8       0xa4 net/libnet.a(eth.o)
 .debug_frame   0x0000055c      0x2b4 net/libnet.a(net.o)
 .debug_frame   0x00000810       0x7c net/libnet.a(rarp.o)
 .debug_frame   0x0000088c      0x134 net/libnet.a(tftp.o)
 .debug_frame   0x000009c0       0x8c net/libnet.a(bootp.o)
 .debug_frame   0x00000a4c       0x34 drivers/mtd/nand/libnand.a(nand.o)
 .debug_frame   0x00000a80      0x848 drivers/mtd/nand/libnand.a(nand_base.o)
 .debug_frame   0x000012c8      0x1cc drivers/mtd/nand/libnand.a(nand_bbt.o)
 .debug_frame   0x00001494       0x44 drivers/mtd/nand/libnand.a(nand_ecc.o)
 .debug_frame   0x000014d8      0x110 drivers/mtd/nand/libnand.a(hinfc_common.o)
 .debug_frame   0x000015e8      0x278 drivers/mtd/nand/hinfc610/libhinfcv610.a(hinfc610.o)
 .debug_frame   0x00001860       0x50 drivers/mtd/nand/hinfc610/libhinfcv610.a(hinfc610_gen.o)
 .debug_frame   0x000018b0       0x90 drivers/mtd/nand/hinfc610/libhinfcv610.a(hinfc610_spl_ids.o)
 .debug_frame   0x00001940       0x90 drivers/mtd/nand/hinfc610/libhinfcv610.a(hinfc610_read_retry_hynix_bg_cdie.o)
 .debug_frame   0x000019d0       0x58 drivers/mtd/nand/hinfc610/libhinfcv610.a(hinfc610_read_retry_hynix_bg_bdie.o)
 .debug_frame   0x00001a28       0x94 drivers/mtd/nand/hinfc610/libhinfcv610.a(hinfc610_read_retry_hynix_cg_adie.o)
 .debug_frame   0x00001abc       0x48 drivers/mtd/nand/hinfc610/libhinfcv610.a(hinfc610_read_retry_micron.o)
 .debug_frame   0x00001b04       0x54 drivers/mtd/nand/hinfc610/libhinfcv610.a(hinfc610_read_retry_samsung.o)
 .debug_frame   0x00001b58       0x44 drivers/mtd/nand/hinfc610/libhinfcv610.a(hinfc610_read_retry_toshiba.o)
 .debug_frame   0x00001b9c       0x50 drivers/mtd/nand/hinfc610/libhinfcv610.a(hinfc620_gen.o)
 .debug_frame   0x00001bec       0x70 drivers/mtd/spi/libspi_flash.a(spi_compatible.o)
 .debug_frame   0x00001c5c      0x20c drivers/mtd/spi/hisfc350/libhisfcv350.a(hisfc350.o)
 .debug_frame   0x00001e68      0x16c drivers/mtd/spi/hisfc350/libhisfcv350.a(hisfc350_spi_ids.o)
 .debug_frame   0x00001fd4       0xe0 drivers/net/higmacv300/libhigmacv300.a(higmac.o)
 .debug_frame   0x000020b4       0xcc drivers/net/higmacv300/libhigmacv300.a(mdio.o)
 .debug_frame   0x00002180      0x14c drivers/net/higmacv300/libhigmacv300.a(ctrl.o)
 .debug_frame   0x000022cc       0x9c drivers/serial/libserial.a(serial_pl01x.o)
 .debug_frame   0x00002368       0x3c common/libcommon.a(cmd_boot.o)
 .debug_frame   0x000023a4      0x13c common/libcommon.a(cmd_bootm.o)
 .debug_frame   0x000024e0       0xcc common/libcommon.a(cmd_ddr_training_v300.o)
 .debug_frame   0x000025ac       0x88 common/libcommon.a(cmd_fat.o)
 .debug_frame   0x00002634       0x2c common/libcommon.a(cmd_getinfo.o)
 .debug_frame   0x00002660       0x30 common/libcommon.a(cmd_help.o)
 .debug_frame   0x00002690      0x1bc common/libcommon.a(cmd_load.o)
 .debug_frame   0x0000284c      0x184 common/libcommon.a(cmd_mem.o)
 .debug_frame   0x000029d0       0x90 common/libcommon.a(cmd_mii.o)
 .debug_frame   0x00002a60      0x118 common/libcommon.a(cmd_nand.o)
 .debug_frame   0x00002b78       0x90 common/libcommon.a(cmd_net.o)
 .debug_frame   0x00002c08      0x15c common/libcommon.a(cmd_nvedit.o)
 .debug_frame   0x00002d64       0x3c common/libcommon.a(cmd_sf.o)
 .debug_frame   0x00002da0      0x1d4 common/libcommon.a(cmd_usb.o)
 .debug_frame   0x00002f74       0x28 common/libcommon.a(cmd_version.o)
 .debug_frame   0x00002f9c      0x104 common/libcommon.a(command.o)
 .debug_frame   0x000030a0      0x2a4 common/libcommon.a(console.o)
 .debug_frame   0x00003344      0x178 common/libcommon.a(dlmalloc.o)
 .debug_frame   0x000034bc       0x7c common/libcommon.a(download_process.o)
 .debug_frame   0x00003538       0xb8 common/libcommon.a(env_common.o)
 .debug_frame   0x000035f0       0x58 common/libcommon.a(env_common_func.o)
 .debug_frame   0x00003648       0xc8 common/libcommon.a(env_nand.o)
 .debug_frame   0x00003710       0x70 common/libcommon.a(env_sf.o)
 .debug_frame   0x00003780       0x48 common/libcommon.a(exports.o)
 .debug_frame   0x000037c8       0x3c common/libcommon.a(hi3516a_ddr_training_printf.o)
 .debug_frame   0x00003804      0x268 common/libcommon.a(image.o)
 .debug_frame   0x00003a6c      0x170 common/libcommon.a(main.o)
 .debug_frame   0x00003bdc      0x1e8 common/libcommon.a(miiphyutil.o)
 .debug_frame   0x00003dc4       0x90 common/libcommon.a(stdio.o)
 .debug_frame   0x00003e54      0x52c common/libcommon.a(usb.o)
 .debug_frame   0x00004380      0x288 common/libcommon.a(usb_storage.o)
 .debug_frame   0x00004608      0x14c common/libcommon.a(xyzModem.o)
 .debug_frame   0x00004754       0x20 product/libproduct.a(sample.o)
 .debug_frame   0x00004774       0x70 board/hi3516a/libhi3516a.a(board.o)
 .debug_frame   0x000047e4       0x28 lib/libgeneric.a(crc16.o)
 .debug_frame   0x0000480c       0x54 lib/libgeneric.a(crc32.o)
 .debug_frame   0x00004860       0x90 lib/libgeneric.a(display_options.o)
 .debug_frame   0x000048f0       0x3c lib/libgeneric.a(div64.o)
 .debug_frame   0x0000492c       0x7c lib/libgeneric.a(gunzip.o)
 .debug_frame   0x000049a8       0x34 lib/libgeneric.a(net_utils.o)
 .debug_frame   0x000049dc      0x20c lib/libgeneric.a(string.o)
 .debug_frame   0x00004be8       0x2c lib/libgeneric.a(time.o)
 .debug_frame   0x00004c14      0x1c8 lib/libgeneric.a(vsprintf.o)
 .debug_frame   0x00004ddc       0xb0 lib/libgeneric.a(match_table.o)
 .debug_frame   0x00004e8c      0x160 lib/libgeneric.a(zlib.o)
 .debug_frame   0x00004fec       0xdc arch/arm/cpu/hi3516a/hi3516a/libhi3516a.a(timer.o)
 .debug_frame   0x000050c8       0x34 arch/arm/lib/libarm.a(bootm.o)
 .debug_frame   0x000050fc       0x20 arch/arm/lib/libarm.a(cache.o)
 .debug_frame   0x0000511c       0x3c arch/arm/lib/libarm.a(process.o)
 .debug_frame   0x00005158       0xe0 arch/arm/lib/libarm.a(cache-cp15.o)
 .debug_frame   0x00005238       0x28 arch/arm/lib/libarm.a(reset.o)
 .debug_frame   0x00005260       0x70 arch/arm/lib/libarm.a(ddr_layout.o)
 .debug_frame   0x000052d0       0x30 arch/arm/lib/libarm.a(ddr_size.o)
 .debug_frame   0x00005300       0xec arch/arm/lib/libarm.a(cpu_info.o)
 .debug_frame   0x000053ec      0x1dc fs/fat/libfat.a(fat.o)
 .debug_frame   0x000055c8       0xcc disk/libdisk.a(part.o)
 .debug_frame   0x00005694       0xe0 disk/libdisk.a(part_dos.o)
 .debug_frame   0x00005774      0x154 drivers/mtd/nand/libnand.a(nand_util.o)
 .debug_frame   0x000058c8       0x98 drivers/mtd/spi/libspi_flash.a(spi_ids.o)
 .debug_frame   0x00005960      0x1bc drivers/usb/host/hiusb/libhiusb.a(hiusb-ohci.o)
 .debug_frame   0x00005b1c       0x28 arch/arm/cpu/hi3516a/libhi3516a.a(cpu.o)
 .debug_frame   0x00005b44       0x38 /home/jun/hi3516dv100/3.software_source_code/osdrv/opensource/uboot/u-boot-2010.06/arch/arm/lib/eabi_compat.o
 .debug_frame   0x00005b7c       0x20 /opt/hisi-linux/x86-arm/arm-hisiv300-linux/bin/../lib/gcc/arm-hisiv300-linux-uclibcgnueabi/4.8.3/libgcc.a(_udivsi3.o)
 .debug_frame   0x00005b9c       0x20 /opt/hisi-linux/x86-arm/arm-hisiv300-linux/bin/../lib/gcc/arm-hisiv300-linux-uclibcgnueabi/4.8.3/libgcc.a(_divsi3.o)
